---
triple:          'arm64-apple-darwin'
binary-path:     '/Users/varvbar/projects/practicum/sprint7/T1/exe8'
relocations:
  - { offsetInCU: 0x4BE1, offset: 0x4BE1, size: 0x8, addend: 0x0, symName: __ZNSt3__17advanceB8ue170006INS_15__list_iteratorIcPvEEmmvEEvRT_T0_, symObjAddr: 0x879C, symBinAddr: 0x10000CAF4, symSize: 0x38 }
  - { offsetInCU: 0x4CB0, offset: 0x4CB0, size: 0x8, addend: 0x0, symName: __ZNSt3__17advanceB8ue170006INS_15__list_iteratorIcPvEEiivEEvRT_T0_, symObjAddr: 0x8F74, symBinAddr: 0x10000D2CC, symSize: 0x40 }
  - { offsetInCU: 0x4D1B, offset: 0x4D1B, size: 0x8, addend: 0x0, symName: __ZNSt3__124__put_character_sequenceB8ue170006IcNS_11char_traitsIcEEEERNS_13basic_ostreamIT_T0_EES7_PKS4_m, symObjAddr: 0x90D0, symBinAddr: 0x10000D428, symSize: 0x1EC }
  - { offsetInCU: 0x68B0, offset: 0x68B0, size: 0x8, addend: 0x0, symName: __ZNSt3__18literals15string_literalsli1sB8ue170006EPKcm, symObjAddr: 0x2FC, symBinAddr: 0x100004654, symSize: 0x40 }
  - { offsetInCU: 0x6974, offset: 0x6974, size: 0x8, addend: 0x0, symName: __ZNSt3__1lsB8ue170006IcNS_11char_traitsIcEENS_9allocatorIcEEEERNS_13basic_ostreamIT_T0_EES9_RKNS_12basic_stringIS6_S7_T1_EE, symObjAddr: 0x2B0, symBinAddr: 0x100004608, symSize: 0x4C }
  - { offsetInCU: 0x69CC, offset: 0x69CC, size: 0x8, addend: 0x0, symName: __ZNSt3__14endlB8ue170006IcNS_11char_traitsIcEEEERNS_13basic_ostreamIT_T0_EES7_, symObjAddr: 0x398, symBinAddr: 0x1000046F0, symSize: 0x58 }
  - { offsetInCU: 0x6A0C, offset: 0x6A0C, size: 0x8, addend: 0x0, symName: __ZNSt3__1neB8ue170006IPKcEEbRKNS_11__wrap_iterIT_EES7_, symObjAddr: 0xF48, symBinAddr: 0x1000052A0, symSize: 0x34 }
  - { offsetInCU: 0x6AA0, offset: 0x6AA0, size: 0x8, addend: 0x0, symName: __ZNSt3__117__libcpp_allocateB8ue170006Emm, symObjAddr: 0x7950, symBinAddr: 0x10000BCA8, symSize: 0x60 }
  - { offsetInCU: 0x6AFA, offset: 0x6AFA, size: 0x8, addend: 0x0, symName: __ZNSt3__124__is_overaligned_for_newB8ue170006Em, symObjAddr: 0x79C8, symBinAddr: 0x10000BD20, symSize: 0x20 }
  - { offsetInCU: 0x6B28, offset: 0x6B28, size: 0x8, addend: 0x0, symName: __ZNSt3__121__libcpp_operator_newB8ue170006IJmSt11align_val_tEEEPvDpT_, symObjAddr: 0x79E8, symBinAddr: 0x10000BD40, symSize: 0x2C }
  - { offsetInCU: 0x6B75, offset: 0x6B75, size: 0x8, addend: 0x0, symName: __ZNSt3__121__libcpp_operator_newB8ue170006IJmEEEPvDpT_, symObjAddr: 0x7A14, symBinAddr: 0x10000BD6C, symSize: 0x24 }
  - { offsetInCU: 0x6BAE, offset: 0x6BAE, size: 0x8, addend: 0x0, symName: __ZNSt3__119__libcpp_deallocateB8ue170006EPvmm, symObjAddr: 0x7E00, symBinAddr: 0x10000C158, symSize: 0x60 }
  - { offsetInCU: 0x6C13, offset: 0x6C13, size: 0x8, addend: 0x0, symName: __ZNSt3__127__do_deallocate_handle_sizeB8ue170006IJSt11align_val_tEEEvPvmDpT_, symObjAddr: 0x7E60, symBinAddr: 0x10000C1B8, symSize: 0x30 }
  - { offsetInCU: 0x6C66, offset: 0x6C66, size: 0x8, addend: 0x0, symName: __ZNSt3__127__do_deallocate_handle_sizeB8ue170006IJEEEvPvmDpT_, symObjAddr: 0x7E90, symBinAddr: 0x10000C1E8, symSize: 0x28 }
  - { offsetInCU: 0x6CA4, offset: 0x6CA4, size: 0x8, addend: 0x0, symName: __ZNSt3__124__libcpp_operator_deleteB8ue170006IJPvSt11align_val_tEEEvDpT_, symObjAddr: 0x7EB8, symBinAddr: 0x10000C210, symSize: 0x2C }
  - { offsetInCU: 0x6CED, offset: 0x6CED, size: 0x8, addend: 0x0, symName: __ZNSt3__124__libcpp_operator_deleteB8ue170006IJPvEEEvDpT_, symObjAddr: 0x7EE4, symBinAddr: 0x10000C23C, symSize: 0x24 }
  - { offsetInCU: 0x6D22, offset: 0x6D22, size: 0x8, addend: 0x0, symName: __ZNSt3__1neB8ue170006ERKNS_21__list_const_iteratorIcPvEES4_, symObjAddr: 0x8278, symBinAddr: 0x10000C5D0, symSize: 0x34 }
  - { offsetInCU: 0x6D5F, offset: 0x6D5F, size: 0x8, addend: 0x0, symName: __ZNSt3__1eqB8ue170006ERKNS_21__list_const_iteratorIcPvEES4_, symObjAddr: 0x8470, symBinAddr: 0x10000C7C8, symSize: 0x30 }
  - { offsetInCU: 0x6D9C, offset: 0x6D9C, size: 0x8, addend: 0x0, symName: __ZNSt3__1eqB8ue170006IPKcEEbRKNS_11__wrap_iterIT_EES7_, symObjAddr: 0x84D8, symBinAddr: 0x10000C830, symSize: 0x48 }
  - { offsetInCU: 0x6DDF, offset: 0x6DDF, size: 0x8, addend: 0x0, symName: __ZNSt3__18distanceB8ue170006INS_15__list_iteratorIcPvEEEENS_15iterator_traitsIT_E15difference_typeES5_S5_, symObjAddr: 0x8734, symBinAddr: 0x10000CA8C, symSize: 0x3C }
  - { offsetInCU: 0x6E3E, offset: 0x6E3E, size: 0x8, addend: 0x0, symName: __ZNSt3__110__distanceB8ue170006INS_15__list_iteratorIcPvEEEENS_15iterator_traitsIT_E15difference_typeES5_S5_NS_18input_iterator_tagE, symObjAddr: 0x8834, symBinAddr: 0x10000CB8C, symSize: 0x5C }
  - { offsetInCU: 0x6E99, offset: 0x6E99, size: 0x8, addend: 0x0, symName: __ZNSt3__1neB8ue170006ERKNS_15__list_iteratorIcPvEES4_, symObjAddr: 0x8890, symBinAddr: 0x10000CBE8, symSize: 0x34 }
  - { offsetInCU: 0x6ED6, offset: 0x6ED6, size: 0x8, addend: 0x0, symName: __ZNSt3__1eqB8ue170006ERKNS_15__list_iteratorIcPvEES4_, symObjAddr: 0x88C4, symBinAddr: 0x10000CC1C, symSize: 0x30 }
  - { offsetInCU: 0x6F13, offset: 0x6F13, size: 0x8, addend: 0x0, symName: __ZNSt3__121__convert_to_integralB8ue170006Em, symObjAddr: 0x8928, symBinAddr: 0x10000CC80, symSize: 0x14 }
  - { offsetInCU: 0x6F3F, offset: 0x6F3F, size: 0x8, addend: 0x0, symName: __ZNSt3__19__advanceB8ue170006INS_15__list_iteratorIcPvEEEEvRT_NS_15iterator_traitsIS4_E15difference_typeENS_26bidirectional_iterator_tagE, symObjAddr: 0x893C, symBinAddr: 0x10000CC94, symSize: 0xA4 }
  - { offsetInCU: 0x6F88, offset: 0x6F88, size: 0x8, addend: 0x0, symName: __ZNSt3__121__convert_to_integralB8ue170006Ei, symObjAddr: 0x8FB4, symBinAddr: 0x10000D30C, symSize: 0x14 }
  - { offsetInCU: 0x6FB4, offset: 0x6FB4, size: 0x8, addend: 0x0, symName: __ZNSt3__116__pad_and_outputB8ue170006IcNS_11char_traitsIcEEEENS_19ostreambuf_iteratorIT_T0_EES6_PKS4_S8_S8_RNS_8ios_baseES4_, symObjAddr: 0x9354, symBinAddr: 0x10000D6AC, symSize: 0x240 }
  - { offsetInCU: 0x7083, offset: 0x7083, size: 0x8, addend: 0x0, symName: __ZNSt3__112__to_addressB8ue170006IcEEPT_S2_, symObjAddr: 0x97C4, symBinAddr: 0x10000DB1C, symSize: 0x14 }
  - { offsetInCU: 0x70B8, offset: 0x70B8, size: 0x8, addend: 0x0, symName: __ZNSt3__19use_facetB8ue170006INS_5ctypeIcEEEERKT_RKNS_6localeE, symObjAddr: 0x9A44, symBinAddr: 0x10000DD9C, symSize: 0x2C }
  - { offsetInCU: 0x7585, offset: 0x7585, size: 0x8, addend: 0x0, symName: __ZNSt3__112__to_addressB8ue170006IKcEEPT_S3_, symObjAddr: 0x9ADC, symBinAddr: 0x10000DE34, symSize: 0x14 }
  - { offsetInCU: 0x75ED, offset: 0x75ED, size: 0x8, addend: 0x0, symName: __ZNSt3__1neB8ue170006IcNS_11char_traitsIcEENS_9allocatorIcEEEEbRKNS_12basic_stringIT_T0_T1_EESB_, symObjAddr: 0x9C04, symBinAddr: 0x10000DF5C, symSize: 0x34 }
  - { offsetInCU: 0x7645, offset: 0x7645, size: 0x8, addend: 0x0, symName: __ZNSt3__19boolalphaB8ue170006ERNS_8ios_baseE, symObjAddr: 0x9C78, symBinAddr: 0x10000DFD0, symSize: 0x2C }
  - { offsetInCU: 0x7673, offset: 0x7673, size: 0x8, addend: 0x0, symName: __ZNSt3__1eqB8ue170006INS_9allocatorIcEEEEbRKNS_12basic_stringIcNS_11char_traitsIcEET_EES9_, symObjAddr: 0x9CA4, symBinAddr: 0x10000DFFC, symSize: 0x148 }
  - { offsetInCU: 0x76E6, offset: 0x76E6, size: 0x8, addend: 0x0, symName: __ZNSt3__118__constexpr_strlenB8ue170006EPKc, symObjAddr: 0x9EE0, symBinAddr: 0x10000E238, symSize: 0x24 }
  - { offsetInCU: 0x7712, offset: 0x7712, size: 0x8, addend: 0x0, symName: __ZNSt3__18distanceB8ue170006IPKcEENS_15iterator_traitsIT_E15difference_typeES4_S4_, symObjAddr: 0xA080, symBinAddr: 0x10000E3D8, symSize: 0x2C }
  - { offsetInCU: 0x7755, offset: 0x7755, size: 0x8, addend: 0x0, symName: __ZNSt3__110__distanceB8ue170006IPKcEENS_15iterator_traitsIT_E15difference_typeES4_S4_NS_26random_access_iterator_tagE, symObjAddr: 0xA1F0, symBinAddr: 0x10000E548, symSize: 0x20 }
  - { offsetInCU: 0x77A2, offset: 0x77A2, size: 0x8, addend: 0x0, symName: __ZNSt3__119__allocate_at_leastB8ue170006INS_9allocatorIcEEEENS_19__allocation_resultINS_16allocator_traitsIT_E7pointerEEERS5_m, symObjAddr: 0xA370, symBinAddr: 0x10000E6C8, symSize: 0x40 }
  - { offsetInCU: 0x79D1, offset: 0x79D1, size: 0x8, addend: 0x0, symName: __ZNSt3__120__throw_length_errorB8ue170006EPKc, symObjAddr: 0xA620, symBinAddr: 0x10000E978, symSize: 0x64 }
  - { offsetInCU: 0x7C6C, offset: 0x7C6C, size: 0x8, addend: 0x0, symName: __ZSt28__throw_bad_array_new_lengthB8ue170006v, symObjAddr: 0x791C, symBinAddr: 0x10000BC74, symSize: 0x34 }
  - { offsetInCU: 0xA61E, offset: 0xA61E, size: 0x8, addend: 0x0, symName: __Z10AssertImplbRKNSt3__112basic_stringIcNS_11char_traitsIcEENS_9allocatorIcEEEES7_S7_jS7_, symObjAddr: 0x0, symBinAddr: 0x100004358, symSize: 0x2B0 }
  - { offsetInCU: 0xA695, offset: 0xA695, size: 0x8, addend: 0x0, symName: __ZNKSt3__112basic_stringIcNS_11char_traitsIcEENS_9allocatorIcEEE5emptyB8ue170006Ev, symObjAddr: 0x33C, symBinAddr: 0x100004694, symSize: 0x30 }
  - { offsetInCU: 0xA6BB, offset: 0xA6BB, size: 0x8, addend: 0x0, symName: __ZNSt3__113basic_ostreamIcNS_11char_traitsIcEEElsB8ue170006EPFRS3_S4_E, symObjAddr: 0x36C, symBinAddr: 0x1000046C4, symSize: 0x2C }
  - { offsetInCU: 0xA6EE, offset: 0xA6EE, size: 0x8, addend: 0x0, symName: __Z15TestConstructorv, symObjAddr: 0x3F0, symBinAddr: 0x100004748, symSize: 0x208 }
  - { offsetInCU: 0xA840, offset: 0xA840, size: 0x8, addend: 0x0, symName: __ZN6EditorC1Ev, symObjAddr: 0x5F8, symBinAddr: 0x100004950, symSize: 0x2C }
  - { offsetInCU: 0xA869, offset: 0xA869, size: 0x8, addend: 0x0, symName: __Z15AssertEqualImplINSt3__112basic_stringIcNS0_11char_traitsIcEENS0_9allocatorIcEEEES6_EvRKT_RKT0_RKS6_SE_SE_SE_jSE_, symObjAddr: 0x624, symBinAddr: 0x10000497C, symSize: 0x3E8 }
  - { offsetInCU: 0xA910, offset: 0xA910, size: 0x8, addend: 0x0, symName: __ZNK6Editor7GetTextEv, symObjAddr: 0xA0C, symBinAddr: 0x100004D64, symSize: 0x194 }
  - { offsetInCU: 0xA993, offset: 0xA993, size: 0x8, addend: 0x0, symName: __ZNSt3__112basic_stringIcNS_11char_traitsIcEENS_9allocatorIcEEEC1B8ue170006ILi0EEEPKc, symObjAddr: 0xBA0, symBinAddr: 0x100004EF8, symSize: 0x34 }
  - { offsetInCU: 0xA9D2, offset: 0xA9D2, size: 0x8, addend: 0x0, symName: __ZN6EditorD1Ev, symObjAddr: 0xBD4, symBinAddr: 0x100004F2C, symSize: 0x2C }
  - { offsetInCU: 0xA9FD, offset: 0xA9FD, size: 0x8, addend: 0x0, symName: __Z11TestGetTextv, symObjAddr: 0xC00, symBinAddr: 0x100004F58, symSize: 0x2A8 }
  - { offsetInCU: 0xAA83, offset: 0xAA83, size: 0x8, addend: 0x0, symName: __ZNKSt3__112basic_stringIcNS_11char_traitsIcEENS_9allocatorIcEEE5beginB8ue170006Ev, symObjAddr: 0xEA8, symBinAddr: 0x100005200, symSize: 0x4C }
  - { offsetInCU: 0xAAA9, offset: 0xAAA9, size: 0x8, addend: 0x0, symName: __ZNKSt3__112basic_stringIcNS_11char_traitsIcEENS_9allocatorIcEEE3endB8ue170006Ev, symObjAddr: 0xEF4, symBinAddr: 0x10000524C, symSize: 0x54 }
  - { offsetInCU: 0xAACF, offset: 0xAACF, size: 0x8, addend: 0x0, symName: __ZNKSt3__111__wrap_iterIPKcEdeB8ue170006Ev, symObjAddr: 0xF7C, symBinAddr: 0x1000052D4, symSize: 0x18 }
  - { offsetInCU: 0xAAF5, offset: 0xAAF5, size: 0x8, addend: 0x0, symName: __ZN6Editor6InsertEc, symObjAddr: 0xF94, symBinAddr: 0x1000052EC, symSize: 0x64 }
  - { offsetInCU: 0xAB29, offset: 0xAB29, size: 0x8, addend: 0x0, symName: __ZNSt3__111__wrap_iterIPKcEppB8ue170006Ev, symObjAddr: 0xFF8, symBinAddr: 0x100005350, symSize: 0x20 }
  - { offsetInCU: 0xAB4E, offset: 0xAB4E, size: 0x8, addend: 0x0, symName: __Z10TestInsertv, symObjAddr: 0x1018, symBinAddr: 0x100005370, symSize: 0x3D8 }
  - { offsetInCU: 0xAB7F, offset: 0xAB7F, size: 0x8, addend: 0x0, symName: __Z8TestCopyv, symObjAddr: 0x13F0, symBinAddr: 0x100005748, symSize: 0xDE0 }
  - { offsetInCU: 0xAC05, offset: 0xAC05, size: 0x8, addend: 0x0, symName: __ZN6Editor4CopyEm, symObjAddr: 0x21D0, symBinAddr: 0x100006528, symSize: 0x14C }
  - { offsetInCU: 0xAC80, offset: 0xAC80, size: 0x8, addend: 0x0, symName: __ZNK6Editor9GetBufferEv, symObjAddr: 0x231C, symBinAddr: 0x100006674, symSize: 0x17C }
  - { offsetInCU: 0xAD06, offset: 0xAD06, size: 0x8, addend: 0x0, symName: __ZN6Editor4LeftEv, symObjAddr: 0x2498, symBinAddr: 0x1000067F0, symSize: 0xC4 }
  - { offsetInCU: 0xAD3A, offset: 0xAD3A, size: 0x8, addend: 0x0, symName: __ZN6Editor5RightEv, symObjAddr: 0x255C, symBinAddr: 0x1000068B4, symSize: 0xE0 }
  - { offsetInCU: 0xAD7B, offset: 0xAD7B, size: 0x8, addend: 0x0, symName: __Z7TestCutv, symObjAddr: 0x263C, symBinAddr: 0x100006994, symSize: 0x1288 }
  - { offsetInCU: 0xAE03, offset: 0xAE03, size: 0x8, addend: 0x0, symName: __ZN6Editor3CutEm, symObjAddr: 0x38C4, symBinAddr: 0x100007C1C, symSize: 0xE4 }
  - { offsetInCU: 0xAE60, offset: 0xAE60, size: 0x8, addend: 0x0, symName: __Z9TestPastev, symObjAddr: 0x39A8, symBinAddr: 0x100007D00, symSize: 0x1A0C }
  - { offsetInCU: 0xAEEA, offset: 0xAEEA, size: 0x8, addend: 0x0, symName: __ZN6Editor5PasteEv, symObjAddr: 0x53B4, symBinAddr: 0x10000970C, symSize: 0x8C }
  - { offsetInCU: 0xAF0F, offset: 0xAF0F, size: 0x8, addend: 0x0, symName: __Z10TestCursorv, symObjAddr: 0x5440, symBinAddr: 0x100009798, symSize: 0x1794 }
  - { offsetInCU: 0xB03B, offset: 0xB03B, size: 0x8, addend: 0x0, symName: __ZN6Editor9GetCursorEv, symObjAddr: 0x6BD4, symBinAddr: 0x10000AF2C, symSize: 0x20 }
  - { offsetInCU: 0xB061, offset: 0xB061, size: 0x8, addend: 0x0, symName: __ZNKSt3__115__list_iteratorIcPvEdeB8ue170006Ev, symObjAddr: 0x6BF4, symBinAddr: 0x10000AF4C, symSize: 0x2C }
  - { offsetInCU: 0xB087, offset: 0xB087, size: 0x8, addend: 0x0, symName: __ZNSt3__112basic_stringIcNS_11char_traitsIcEENS_9allocatorIcEEEC1B8ue170006ESt16initializer_listIcE, symObjAddr: 0x6C20, symBinAddr: 0x10000AF78, symSize: 0x3C }
  - { offsetInCU: 0xB0C0, offset: 0xB0C0, size: 0x8, addend: 0x0, symName: __Z10TestEditorv, symObjAddr: 0x6C5C, symBinAddr: 0x10000AFB4, symSize: 0x220 }
  - { offsetInCU: 0xB0DA, offset: 0xB0DA, size: 0x8, addend: 0x0, symName: __Z11RunTestImplIFvvEEvRKT_RKNSt3__112basic_stringIcNS4_11char_traitsIcEENS4_9allocatorIcEEEE, symObjAddr: 0x6E7C, symBinAddr: 0x10000B1D4, symSize: 0xA4 }
  - { offsetInCU: 0xB122, offset: 0xB122, size: 0x8, addend: 0x0, symName: _main, symObjAddr: 0x6F20, symBinAddr: 0x10000B278, symSize: 0x2C }
  - { offsetInCU: 0xB13D, offset: 0xB13D, size: 0x8, addend: 0x0, symName: __ZNSt3__112basic_stringIcNS_11char_traitsIcEENS_9allocatorIcEEEC1B8ue170006EPKcm, symObjAddr: 0x6F4C, symBinAddr: 0x10000B2A4, symSize: 0x3C }
  - { offsetInCU: 0xB185, offset: 0xB185, size: 0x8, addend: 0x0, symName: __ZNSt3__112basic_stringIcNS_11char_traitsIcEENS_9allocatorIcEEEC2B8ue170006EPKcm, symObjAddr: 0x6F88, symBinAddr: 0x10000B2E0, symSize: 0x4C }
  - { offsetInCU: 0xB1D2, offset: 0xB1D2, size: 0x8, addend: 0x0, symName: __ZNSt3__117__compressed_pairINS_12basic_stringIcNS_11char_traitsIcEENS_9allocatorIcEEE5__repES5_EC1B8ue170006INS_18__default_init_tagESA_EEOT_OT0_, symObjAddr: 0x6FD4, symBinAddr: 0x10000B32C, symSize: 0x3C }
  - { offsetInCU: 0xB22A, offset: 0xB22A, size: 0x8, addend: 0x0, symName: __ZNSt3__117__compressed_pairINS_12basic_stringIcNS_11char_traitsIcEENS_9allocatorIcEEE5__repES5_EC2B8ue170006INS_18__default_init_tagESA_EEOT_OT0_, symObjAddr: 0x7010, symBinAddr: 0x10000B368, symSize: 0x3C }
  - { offsetInCU: 0xB282, offset: 0xB282, size: 0x8, addend: 0x0, symName: __ZNSt3__122__compressed_pair_elemINS_12basic_stringIcNS_11char_traitsIcEENS_9allocatorIcEEE5__repELi0ELb0EEC2B8ue170006ENS_18__default_init_tagE, symObjAddr: 0x704C, symBinAddr: 0x10000B3A4, symSize: 0x14 }
  - { offsetInCU: 0xB2B6, offset: 0xB2B6, size: 0x8, addend: 0x0, symName: __ZNSt3__122__compressed_pair_elemINS_9allocatorIcEELi1ELb1EEC2B8ue170006ENS_18__default_init_tagE, symObjAddr: 0x7060, symBinAddr: 0x10000B3B8, symSize: 0x2C }
  - { offsetInCU: 0xB2EA, offset: 0xB2EA, size: 0x8, addend: 0x0, symName: __ZNSt3__19allocatorIcEC2B8ue170006Ev, symObjAddr: 0x708C, symBinAddr: 0x10000B3E4, symSize: 0x2C }
  - { offsetInCU: 0xB314, offset: 0xB314, size: 0x8, addend: 0x0, symName: __ZNSt3__116__non_trivial_ifILb1ENS_9allocatorIcEEEC2B8ue170006Ev, symObjAddr: 0x70B8, symBinAddr: 0x10000B410, symSize: 0x14 }
  - { offsetInCU: 0xB33E, offset: 0xB33E, size: 0x8, addend: 0x0, symName: __ZN6EditorC2Ev, symObjAddr: 0x70CC, symBinAddr: 0x10000B424, symSize: 0xA8 }
  - { offsetInCU: 0xB368, offset: 0xB368, size: 0x8, addend: 0x0, symName: __ZNSt3__14listIcNS_9allocatorIcEEEC1B8ue170006Ev, symObjAddr: 0x7174, symBinAddr: 0x10000B4CC, symSize: 0x2C }
  - { offsetInCU: 0xB392, offset: 0xB392, size: 0x8, addend: 0x0, symName: __ZNSt3__115__list_iteratorIcPvEC1B8ue170006Ev, symObjAddr: 0x71A0, symBinAddr: 0x10000B4F8, symSize: 0x2C }
  - { offsetInCU: 0xB3BC, offset: 0xB3BC, size: 0x8, addend: 0x0, symName: __ZNSt3__14listIcNS_9allocatorIcEEE9push_backERKc, symObjAddr: 0x71CC, symBinAddr: 0x10000B524, symSize: 0xF4 }
  - { offsetInCU: 0xB411, offset: 0xB411, size: 0x8, addend: 0x0, symName: __ZNSt3__14listIcNS_9allocatorIcEEE5beginB8ue170006Ev, symObjAddr: 0x72C0, symBinAddr: 0x10000B618, symSize: 0x2C }
  - { offsetInCU: 0xB437, offset: 0xB437, size: 0x8, addend: 0x0, symName: __ZNSt3__14listIcNS_9allocatorIcEEED1Ev, symObjAddr: 0x72EC, symBinAddr: 0x10000B644, symSize: 0x2C }
  - { offsetInCU: 0xB464, offset: 0xB464, size: 0x8, addend: 0x0, symName: __ZNSt3__14listIcNS_9allocatorIcEEEC2B8ue170006Ev, symObjAddr: 0x7318, symBinAddr: 0x10000B670, symSize: 0x2C }
  - { offsetInCU: 0xB48E, offset: 0xB48E, size: 0x8, addend: 0x0, symName: __ZNSt3__110__list_impIcNS_9allocatorIcEEEC2Ev, symObjAddr: 0x7344, symBinAddr: 0x10000B69C, symSize: 0x50 }
  - { offsetInCU: 0xB4BA, offset: 0xB4BA, size: 0x8, addend: 0x0, symName: __ZNSt3__116__list_node_baseIcPvEC1B8ue170006Ev, symObjAddr: 0x7394, symBinAddr: 0x10000B6EC, symSize: 0x2C }
  - { offsetInCU: 0xB4E9, offset: 0xB4E9, size: 0x8, addend: 0x0, symName: __ZNSt3__117__compressed_pairImNS_9allocatorINS_11__list_nodeIcPvEEEEEC1B8ue170006IiNS_18__default_init_tagEEEOT_OT0_, symObjAddr: 0x73CC, symBinAddr: 0x10000B724, symSize: 0x3C }
  - { offsetInCU: 0xB541, offset: 0xB541, size: 0x8, addend: 0x0, symName: __ZNSt3__116__list_node_baseIcPvEC2B8ue170006Ev, symObjAddr: 0x7408, symBinAddr: 0x10000B760, symSize: 0x4C }
  - { offsetInCU: 0xB56B, offset: 0xB56B, size: 0x8, addend: 0x0, symName: __ZNSt3__126__list_node_pointer_traitsIcPvE26__unsafe_link_pointer_castB8ue170006EPNS_16__list_node_baseIcS1_EE, symObjAddr: 0x7454, symBinAddr: 0x10000B7AC, symSize: 0x14 }
  - { offsetInCU: 0xB58F, offset: 0xB58F, size: 0x8, addend: 0x0, symName: __ZNSt3__116__list_node_baseIcPvE6__selfB8ue170006Ev, symObjAddr: 0x7468, symBinAddr: 0x10000B7C0, symSize: 0x24 }
  - { offsetInCU: 0xB5BA, offset: 0xB5BA, size: 0x8, addend: 0x0, symName: __ZNSt3__114pointer_traitsIPNS_16__list_node_baseIcPvEEE10pointer_toB8ue170006ERS3_, symObjAddr: 0x748C, symBinAddr: 0x10000B7E4, symSize: 0x14 }
  - { offsetInCU: 0xB5DD, offset: 0xB5DD, size: 0x8, addend: 0x0, symName: __ZNSt3__117__compressed_pairImNS_9allocatorINS_11__list_nodeIcPvEEEEEC2B8ue170006IiNS_18__default_init_tagEEEOT_OT0_, symObjAddr: 0x74A0, symBinAddr: 0x10000B7F8, symSize: 0x40 }
  - { offsetInCU: 0xB635, offset: 0xB635, size: 0x8, addend: 0x0, symName: __ZNSt3__122__compressed_pair_elemImLi0ELb0EEC2B8ue170006IivEEOT_, symObjAddr: 0x74E0, symBinAddr: 0x10000B838, symSize: 0x24 }
  - { offsetInCU: 0xB677, offset: 0xB677, size: 0x8, addend: 0x0, symName: __ZNSt3__122__compressed_pair_elemINS_9allocatorINS_11__list_nodeIcPvEEEELi1ELb1EEC2B8ue170006ENS_18__default_init_tagE, symObjAddr: 0x7504, symBinAddr: 0x10000B85C, symSize: 0x2C }
  - { offsetInCU: 0xB6AB, offset: 0xB6AB, size: 0x8, addend: 0x0, symName: __ZNSt3__19allocatorINS_11__list_nodeIcPvEEEC2B8ue170006Ev, symObjAddr: 0x7530, symBinAddr: 0x10000B888, symSize: 0x2C }
  - { offsetInCU: 0xB6D5, offset: 0xB6D5, size: 0x8, addend: 0x0, symName: __ZNSt3__116__non_trivial_ifILb1ENS_9allocatorINS_11__list_nodeIcPvEEEEEC2B8ue170006Ev, symObjAddr: 0x755C, symBinAddr: 0x10000B8B4, symSize: 0x14 }
  - { offsetInCU: 0xB6FF, offset: 0xB6FF, size: 0x8, addend: 0x0, symName: __ZNSt3__115__list_iteratorIcPvEC2B8ue170006Ev, symObjAddr: 0x7570, symBinAddr: 0x10000B8C8, symSize: 0x18 }
  - { offsetInCU: 0xB729, offset: 0xB729, size: 0x8, addend: 0x0, symName: __ZNSt3__110__list_impIcNS_9allocatorIcEEE12__node_allocB8ue170006Ev, symObjAddr: 0x7588, symBinAddr: 0x10000B8E0, symSize: 0x28 }
  - { offsetInCU: 0xB74F, offset: 0xB74F, size: 0x8, addend: 0x0, symName: __ZNSt3__14listIcNS_9allocatorIcEEE15__allocate_nodeB8ue170006ERNS1_INS_11__list_nodeIcPvEEEE, symObjAddr: 0x75B0, symBinAddr: 0x10000B908, symSize: 0x70 }
  - { offsetInCU: 0xB793, offset: 0xB793, size: 0x8, addend: 0x0, symName: __ZNSt3__116allocator_traitsINS_9allocatorINS_11__list_nodeIcPvEEEEE9constructB8ue170006IcJRKcEvEEvRS5_PT_DpOT0_, symObjAddr: 0x7620, symBinAddr: 0x10000B978, symSize: 0x34 }
  - { offsetInCU: 0xB7EA, offset: 0xB7EA, size: 0x8, addend: 0x0, symName: __ZNKSt3__110unique_ptrINS_11__list_nodeIcPvEENS_22__allocator_destructorINS_9allocatorIS3_EEEEEptB8ue170006Ev, symObjAddr: 0x7654, symBinAddr: 0x10000B9AC, symSize: 0x28 }
  - { offsetInCU: 0xB810, offset: 0xB810, size: 0x8, addend: 0x0, symName: __ZNSt3__14listIcNS_9allocatorIcEEE20__link_nodes_at_backEPNS_16__list_node_baseIcPvEES7_, symObjAddr: 0x767C, symBinAddr: 0x10000B9D4, symSize: 0x60 }
  - { offsetInCU: 0xB856, offset: 0xB856, size: 0x8, addend: 0x0, symName: __ZNKSt3__110unique_ptrINS_11__list_nodeIcPvEENS_22__allocator_destructorINS_9allocatorIS3_EEEEE3getB8ue170006Ev, symObjAddr: 0x76DC, symBinAddr: 0x10000BA34, symSize: 0x28 }
  - { offsetInCU: 0xB87C, offset: 0xB87C, size: 0x8, addend: 0x0, symName: __ZNSt3__111__list_nodeIcPvE9__as_linkB8ue170006Ev, symObjAddr: 0x7704, symBinAddr: 0x10000BA5C, symSize: 0x24 }
  - { offsetInCU: 0xB8A2, offset: 0xB8A2, size: 0x8, addend: 0x0, symName: __ZNSt3__110__list_impIcNS_9allocatorIcEEE4__szB8ue170006Ev, symObjAddr: 0x7728, symBinAddr: 0x10000BA80, symSize: 0x28 }
  - { offsetInCU: 0xB8C8, offset: 0xB8C8, size: 0x8, addend: 0x0, symName: __ZNSt3__110unique_ptrINS_11__list_nodeIcPvEENS_22__allocator_destructorINS_9allocatorIS3_EEEEE7releaseB8ue170006Ev, symObjAddr: 0x7750, symBinAddr: 0x10000BAA8, symSize: 0x44 }
  - { offsetInCU: 0xB8FD, offset: 0xB8FD, size: 0x8, addend: 0x0, symName: __ZNSt3__110unique_ptrINS_11__list_nodeIcPvEENS_22__allocator_destructorINS_9allocatorIS3_EEEEED1B8ue170006Ev, symObjAddr: 0x7794, symBinAddr: 0x10000BAEC, symSize: 0x2C }
  - { offsetInCU: 0xB927, offset: 0xB927, size: 0x8, addend: 0x0, symName: __ZNSt3__117__compressed_pairImNS_9allocatorINS_11__list_nodeIcPvEEEEE6secondB8ue170006Ev, symObjAddr: 0x77C0, symBinAddr: 0x10000BB18, symSize: 0x24 }
  - { offsetInCU: 0xB94D, offset: 0xB94D, size: 0x8, addend: 0x0, symName: __ZNSt3__122__compressed_pair_elemINS_9allocatorINS_11__list_nodeIcPvEEEELi1ELb1EE5__getB8ue170006Ev, symObjAddr: 0x77E4, symBinAddr: 0x10000BB3C, symSize: 0x14 }
  - { offsetInCU: 0xB973, offset: 0xB973, size: 0x8, addend: 0x0, symName: __ZNSt3__116allocator_traitsINS_9allocatorINS_11__list_nodeIcPvEEEEE8allocateB8ue170006ERS5_m, symObjAddr: 0x77F8, symBinAddr: 0x10000BB50, symSize: 0x2C }
  - { offsetInCU: 0xB9A6, offset: 0xB9A6, size: 0x8, addend: 0x0, symName: __ZNSt3__122__allocator_destructorINS_9allocatorINS_11__list_nodeIcPvEEEEEC1B8ue170006ERS5_m, symObjAddr: 0x7824, symBinAddr: 0x10000BB7C, symSize: 0x3C }
  - { offsetInCU: 0xB9F1, offset: 0xB9F1, size: 0x8, addend: 0x0, symName: __ZNSt3__110unique_ptrINS_11__list_nodeIcPvEENS_22__allocator_destructorINS_9allocatorIS3_EEEEEC1B8ue170006ILb1EvEEPS3_NS_16__dependent_typeINS_27__unique_ptr_deleter_sfinaeIS7_EEXT_EE20__good_rval_ref_typeE, symObjAddr: 0x7860, symBinAddr: 0x10000BBB8, symSize: 0x3C }
  - { offsetInCU: 0xBA42, offset: 0xBA42, size: 0x8, addend: 0x0, symName: __ZNSt3__19allocatorINS_11__list_nodeIcPvEEE8allocateB8ue170006Em, symObjAddr: 0x789C, symBinAddr: 0x10000BBF4, symSize: 0x5C }
  - { offsetInCU: 0xBA80, offset: 0xBA80, size: 0x8, addend: 0x0, symName: __ZNSt3__116allocator_traitsINS_9allocatorINS_11__list_nodeIcPvEEEEE8max_sizeB8ue170006IS5_vEEmRKS5_, symObjAddr: 0x78F8, symBinAddr: 0x10000BC50, symSize: 0x24 }
  - { offsetInCU: 0xBAAE, offset: 0xBAAE, size: 0x8, addend: 0x0, symName: __ZNKSt3__19allocatorINS_11__list_nodeIcPvEEE8max_sizeB8ue170006Ev, symObjAddr: 0x79B0, symBinAddr: 0x10000BD08, symSize: 0x18 }
  - { offsetInCU: 0xBAD4, offset: 0xBAD4, size: 0x8, addend: 0x0, symName: __ZNSt3__122__allocator_destructorINS_9allocatorINS_11__list_nodeIcPvEEEEEC2B8ue170006ERS5_m, symObjAddr: 0x7A38, symBinAddr: 0x10000BD90, symSize: 0x2C }
  - { offsetInCU: 0xBB1A, offset: 0xBB1A, size: 0x8, addend: 0x0, symName: __ZNSt3__110unique_ptrINS_11__list_nodeIcPvEENS_22__allocator_destructorINS_9allocatorIS3_EEEEEC2B8ue170006ILb1EvEEPS3_NS_16__dependent_typeINS_27__unique_ptr_deleter_sfinaeIS7_EEXT_EE20__good_rval_ref_typeE, symObjAddr: 0x7A64, symBinAddr: 0x10000BDBC, symSize: 0x48 }
  - { offsetInCU: 0xBB6B, offset: 0xBB6B, size: 0x8, addend: 0x0, symName: __ZNSt3__117__compressed_pairIPNS_11__list_nodeIcPvEENS_22__allocator_destructorINS_9allocatorIS3_EEEEEC1B8ue170006IRS4_S8_EEOT_OT0_, symObjAddr: 0x7AAC, symBinAddr: 0x10000BE04, symSize: 0x3C }
  - { offsetInCU: 0xBBC3, offset: 0xBBC3, size: 0x8, addend: 0x0, symName: __ZNSt3__117__compressed_pairIPNS_11__list_nodeIcPvEENS_22__allocator_destructorINS_9allocatorIS3_EEEEEC2B8ue170006IRS4_S8_EEOT_OT0_, symObjAddr: 0x7AE8, symBinAddr: 0x10000BE40, symSize: 0x48 }
  - { offsetInCU: 0xBC1B, offset: 0xBC1B, size: 0x8, addend: 0x0, symName: __ZNSt3__122__compressed_pair_elemIPNS_11__list_nodeIcPvEELi0ELb0EEC2B8ue170006IRS4_vEEOT_, symObjAddr: 0x7B30, symBinAddr: 0x10000BE88, symSize: 0x24 }
  - { offsetInCU: 0xBC5D, offset: 0xBC5D, size: 0x8, addend: 0x0, symName: __ZNSt3__122__compressed_pair_elemINS_22__allocator_destructorINS_9allocatorINS_11__list_nodeIcPvEEEEEELi1ELb0EEC2B8ue170006IS7_vEEOT_, symObjAddr: 0x7B54, symBinAddr: 0x10000BEAC, symSize: 0x24 }
  - { offsetInCU: 0xBC9F, offset: 0xBC9F, size: 0x8, addend: 0x0, symName: __ZNSt3__19allocatorINS_11__list_nodeIcPvEEE9constructB8ue170006IcJRKcEEEvPT_DpOT0_, symObjAddr: 0x7B78, symBinAddr: 0x10000BED0, symSize: 0x28 }
  - { offsetInCU: 0xBCF5, offset: 0xBCF5, size: 0x8, addend: 0x0, symName: __ZNKSt3__117__compressed_pairIPNS_11__list_nodeIcPvEENS_22__allocator_destructorINS_9allocatorIS3_EEEEE5firstB8ue170006Ev, symObjAddr: 0x7BA0, symBinAddr: 0x10000BEF8, symSize: 0x24 }
  - { offsetInCU: 0xBD1B, offset: 0xBD1B, size: 0x8, addend: 0x0, symName: __ZNKSt3__122__compressed_pair_elemIPNS_11__list_nodeIcPvEELi0ELb0EE5__getB8ue170006Ev, symObjAddr: 0x7BC4, symBinAddr: 0x10000BF1C, symSize: 0x14 }
  - { offsetInCU: 0xBD41, offset: 0xBD41, size: 0x8, addend: 0x0, symName: __ZNKSt3__110__list_impIcNS_9allocatorIcEEE13__end_as_linkB8ue170006Ev, symObjAddr: 0x7BD8, symBinAddr: 0x10000BF30, symSize: 0x28 }
  - { offsetInCU: 0xBD67, offset: 0xBD67, size: 0x8, addend: 0x0, symName: __ZNSt3__117__compressed_pairImNS_9allocatorINS_11__list_nodeIcPvEEEEE5firstB8ue170006Ev, symObjAddr: 0x7C00, symBinAddr: 0x10000BF58, symSize: 0x24 }
  - { offsetInCU: 0xBD8D, offset: 0xBD8D, size: 0x8, addend: 0x0, symName: __ZNSt3__122__compressed_pair_elemImLi0ELb0EE5__getB8ue170006Ev, symObjAddr: 0x7C24, symBinAddr: 0x10000BF7C, symSize: 0x14 }
  - { offsetInCU: 0xBDB3, offset: 0xBDB3, size: 0x8, addend: 0x0, symName: __ZNSt3__117__compressed_pairIPNS_11__list_nodeIcPvEENS_22__allocator_destructorINS_9allocatorIS3_EEEEE5firstB8ue170006Ev, symObjAddr: 0x7C38, symBinAddr: 0x10000BF90, symSize: 0x24 }
  - { offsetInCU: 0xBDD9, offset: 0xBDD9, size: 0x8, addend: 0x0, symName: __ZNSt3__122__compressed_pair_elemIPNS_11__list_nodeIcPvEELi0ELb0EE5__getB8ue170006Ev, symObjAddr: 0x7C5C, symBinAddr: 0x10000BFB4, symSize: 0x14 }
  - { offsetInCU: 0xBDFF, offset: 0xBDFF, size: 0x8, addend: 0x0, symName: __ZNSt3__110unique_ptrINS_11__list_nodeIcPvEENS_22__allocator_destructorINS_9allocatorIS3_EEEEED2B8ue170006Ev, symObjAddr: 0x7C70, symBinAddr: 0x10000BFC8, symSize: 0x30 }
  - { offsetInCU: 0xBE29, offset: 0xBE29, size: 0x8, addend: 0x0, symName: __ZNSt3__110unique_ptrINS_11__list_nodeIcPvEENS_22__allocator_destructorINS_9allocatorIS3_EEEEE5resetB8ue170006EPS3_, symObjAddr: 0x7CA0, symBinAddr: 0x10000BFF8, symSize: 0x78 }
  - { offsetInCU: 0xBE6D, offset: 0xBE6D, size: 0x8, addend: 0x0, symName: __ZNSt3__117__compressed_pairIPNS_11__list_nodeIcPvEENS_22__allocator_destructorINS_9allocatorIS3_EEEEE6secondB8ue170006Ev, symObjAddr: 0x7D18, symBinAddr: 0x10000C070, symSize: 0x28 }
  - { offsetInCU: 0xBE93, offset: 0xBE93, size: 0x8, addend: 0x0, symName: __ZNSt3__122__allocator_destructorINS_9allocatorINS_11__list_nodeIcPvEEEEEclB8ue170006EPS4_, symObjAddr: 0x7D40, symBinAddr: 0x10000C098, symSize: 0x34 }
  - { offsetInCU: 0xBEC7, offset: 0xBEC7, size: 0x8, addend: 0x0, symName: __ZNSt3__122__compressed_pair_elemINS_22__allocator_destructorINS_9allocatorINS_11__list_nodeIcPvEEEEEELi1ELb0EE5__getB8ue170006Ev, symObjAddr: 0x7D74, symBinAddr: 0x10000C0CC, symSize: 0x14 }
  - { offsetInCU: 0xBEED, offset: 0xBEED, size: 0x8, addend: 0x0, symName: __ZNSt3__116allocator_traitsINS_9allocatorINS_11__list_nodeIcPvEEEEE10deallocateB8ue170006ERS5_PS4_m, symObjAddr: 0x7D88, symBinAddr: 0x10000C0E0, symSize: 0x34 }
  - { offsetInCU: 0xBF2F, offset: 0xBF2F, size: 0x8, addend: 0x0, symName: __ZNSt3__19allocatorINS_11__list_nodeIcPvEEE10deallocateB8ue170006EPS3_m, symObjAddr: 0x7DBC, symBinAddr: 0x10000C114, symSize: 0x44 }
  - { offsetInCU: 0xBF71, offset: 0xBF71, size: 0x8, addend: 0x0, symName: __ZNSt3__110__list_impIcNS_9allocatorIcEEE5beginB8ue170006Ev, symObjAddr: 0x7F08, symBinAddr: 0x10000C260, symSize: 0x30 }
  - { offsetInCU: 0xBF97, offset: 0xBF97, size: 0x8, addend: 0x0, symName: __ZNSt3__115__list_iteratorIcPvEC1B8ue170006EPNS_16__list_node_baseIcS1_EE, symObjAddr: 0x7F38, symBinAddr: 0x10000C290, symSize: 0x34 }
  - { offsetInCU: 0xBFD0, offset: 0xBFD0, size: 0x8, addend: 0x0, symName: __ZNSt3__115__list_iteratorIcPvEC2B8ue170006EPNS_16__list_node_baseIcS1_EE, symObjAddr: 0x7F6C, symBinAddr: 0x10000C2C4, symSize: 0x20 }
  - { offsetInCU: 0xC009, offset: 0xC009, size: 0x8, addend: 0x0, symName: __ZNSt3__14listIcNS_9allocatorIcEEED2Ev, symObjAddr: 0x7F8C, symBinAddr: 0x10000C2E4, symSize: 0x2C }
  - { offsetInCU: 0xC036, offset: 0xC036, size: 0x8, addend: 0x0, symName: __ZNSt3__110__list_impIcNS_9allocatorIcEEED2Ev, symObjAddr: 0x7FB8, symBinAddr: 0x10000C310, symSize: 0x2C }
  - { offsetInCU: 0xC062, offset: 0xC062, size: 0x8, addend: 0x0, symName: __ZNSt3__110__list_impIcNS_9allocatorIcEEE5clearEv, symObjAddr: 0x7FE4, symBinAddr: 0x10000C33C, symSize: 0xE0 }
  - { offsetInCU: 0xC0D2, offset: 0xC0D2, size: 0x8, addend: 0x0, symName: __ZNKSt3__110__list_impIcNS_9allocatorIcEEE5emptyB8ue170006Ev, symObjAddr: 0x80C4, symBinAddr: 0x10000C41C, symSize: 0x34 }
  - { offsetInCU: 0xC0F8, offset: 0xC0F8, size: 0x8, addend: 0x0, symName: __ZNSt3__110__list_impIcNS_9allocatorIcEEE14__unlink_nodesEPNS_16__list_node_baseIcPvEES7_, symObjAddr: 0x80F8, symBinAddr: 0x10000C450, symSize: 0x3C }
  - { offsetInCU: 0xC12D, offset: 0xC12D, size: 0x8, addend: 0x0, symName: __ZNSt3__116__list_node_baseIcPvE9__as_nodeB8ue170006Ev, symObjAddr: 0x8134, symBinAddr: 0x10000C48C, symSize: 0x24 }
  - { offsetInCU: 0xC153, offset: 0xC153, size: 0x8, addend: 0x0, symName: __ZNSt3__116allocator_traitsINS_9allocatorINS_11__list_nodeIcPvEEEEE7destroyB8ue170006IcvvEEvRS5_PT_, symObjAddr: 0x8158, symBinAddr: 0x10000C4B0, symSize: 0x14 }
  - { offsetInCU: 0xC18E, offset: 0xC18E, size: 0x8, addend: 0x0, symName: __ZNKSt3__110__list_impIcNS_9allocatorIcEEE4__szB8ue170006Ev, symObjAddr: 0x816C, symBinAddr: 0x10000C4C4, symSize: 0x28 }
  - { offsetInCU: 0xC1B4, offset: 0xC1B4, size: 0x8, addend: 0x0, symName: __ZNKSt3__117__compressed_pairImNS_9allocatorINS_11__list_nodeIcPvEEEEE5firstB8ue170006Ev, symObjAddr: 0x8194, symBinAddr: 0x10000C4EC, symSize: 0x24 }
  - { offsetInCU: 0xC1DA, offset: 0xC1DA, size: 0x8, addend: 0x0, symName: __ZNKSt3__122__compressed_pair_elemImLi0ELb0EE5__getB8ue170006Ev, symObjAddr: 0x81B8, symBinAddr: 0x10000C510, symSize: 0x14 }
  - { offsetInCU: 0xC200, offset: 0xC200, size: 0x8, addend: 0x0, symName: __ZNSt3__112basic_stringIcNS_11char_traitsIcEENS_9allocatorIcEEEC1B8ue170006Ev, symObjAddr: 0x81CC, symBinAddr: 0x10000C524, symSize: 0x2C }
  - { offsetInCU: 0xC22A, offset: 0xC22A, size: 0x8, addend: 0x0, symName: __ZNKSt3__14listIcNS_9allocatorIcEEE4sizeB8ue170006Ev, symObjAddr: 0x81F8, symBinAddr: 0x10000C550, symSize: 0x28 }
  - { offsetInCU: 0xC250, offset: 0xC250, size: 0x8, addend: 0x0, symName: __ZNKSt3__14listIcNS_9allocatorIcEEE5beginB8ue170006Ev, symObjAddr: 0x8220, symBinAddr: 0x10000C578, symSize: 0x2C }
  - { offsetInCU: 0xC276, offset: 0xC276, size: 0x8, addend: 0x0, symName: __ZNKSt3__14listIcNS_9allocatorIcEEE3endB8ue170006Ev, symObjAddr: 0x824C, symBinAddr: 0x10000C5A4, symSize: 0x2C }
  - { offsetInCU: 0xC29C, offset: 0xC29C, size: 0x8, addend: 0x0, symName: __ZNKSt3__121__list_const_iteratorIcPvEdeB8ue170006Ev, symObjAddr: 0x82AC, symBinAddr: 0x10000C604, symSize: 0x2C }
  - { offsetInCU: 0xC2C2, offset: 0xC2C2, size: 0x8, addend: 0x0, symName: __ZNSt3__121__list_const_iteratorIcPvEppB8ue170006Ev, symObjAddr: 0x82D8, symBinAddr: 0x10000C630, symSize: 0x20 }
  - { offsetInCU: 0xC2E8, offset: 0xC2E8, size: 0x8, addend: 0x0, symName: __ZNSt3__112basic_stringIcNS_11char_traitsIcEENS_9allocatorIcEEEC2B8ue170006Ev, symObjAddr: 0x82F8, symBinAddr: 0x10000C650, symSize: 0x48 }
  - { offsetInCU: 0xC312, offset: 0xC312, size: 0x8, addend: 0x0, symName: __ZNSt3__112basic_stringIcNS_11char_traitsIcEENS_9allocatorIcEEE14__default_initB8ue170006Ev, symObjAddr: 0x8340, symBinAddr: 0x10000C698, symSize: 0x40 }
  - { offsetInCU: 0xC338, offset: 0xC338, size: 0x8, addend: 0x0, symName: __ZNSt3__117__compressed_pairINS_12basic_stringIcNS_11char_traitsIcEENS_9allocatorIcEEE5__repES5_E5firstB8ue170006Ev, symObjAddr: 0x8380, symBinAddr: 0x10000C6D8, symSize: 0x24 }
  - { offsetInCU: 0xC35E, offset: 0xC35E, size: 0x8, addend: 0x0, symName: __ZNSt3__122__compressed_pair_elemINS_12basic_stringIcNS_11char_traitsIcEENS_9allocatorIcEEE5__repELi0ELb0EE5__getB8ue170006Ev, symObjAddr: 0x83A4, symBinAddr: 0x10000C6FC, symSize: 0x14 }
  - { offsetInCU: 0xC384, offset: 0xC384, size: 0x8, addend: 0x0, symName: __ZNKSt3__110__list_impIcNS_9allocatorIcEEE5beginB8ue170006Ev, symObjAddr: 0x83B8, symBinAddr: 0x10000C710, symSize: 0x30 }
  - { offsetInCU: 0xC3AA, offset: 0xC3AA, size: 0x8, addend: 0x0, symName: __ZNSt3__121__list_const_iteratorIcPvEC1B8ue170006EPNS_16__list_node_baseIcS1_EE, symObjAddr: 0x83E8, symBinAddr: 0x10000C740, symSize: 0x34 }
  - { offsetInCU: 0xC3E3, offset: 0xC3E3, size: 0x8, addend: 0x0, symName: __ZNSt3__121__list_const_iteratorIcPvEC2B8ue170006EPNS_16__list_node_baseIcS1_EE, symObjAddr: 0x841C, symBinAddr: 0x10000C774, symSize: 0x20 }
  - { offsetInCU: 0xC41C, offset: 0xC41C, size: 0x8, addend: 0x0, symName: __ZNKSt3__110__list_impIcNS_9allocatorIcEEE3endB8ue170006Ev, symObjAddr: 0x843C, symBinAddr: 0x10000C794, symSize: 0x34 }
  - { offsetInCU: 0xC442, offset: 0xC442, size: 0x8, addend: 0x0, symName: __ZN6EditorD2Ev, symObjAddr: 0x84A0, symBinAddr: 0x10000C7F8, symSize: 0x38 }
  - { offsetInCU: 0xC46E, offset: 0xC46E, size: 0x8, addend: 0x0, symName: __ZNKSt3__111__wrap_iterIPKcE4baseB8ue170006Ev, symObjAddr: 0x8520, symBinAddr: 0x10000C878, symSize: 0x18 }
  - { offsetInCU: 0xC494, offset: 0xC494, size: 0x8, addend: 0x0, symName: __ZNSt3__14listIcNS_9allocatorIcEEE6insertENS_21__list_const_iteratorIcPvEERKc, symObjAddr: 0x8538, symBinAddr: 0x10000C890, symSize: 0x110 }
  - { offsetInCU: 0xC4F8, offset: 0xC4F8, size: 0x8, addend: 0x0, symName: __ZNSt3__121__list_const_iteratorIcPvEC1B8ue170006ERKNS_15__list_iteratorIcS1_EE, symObjAddr: 0x8648, symBinAddr: 0x10000C9A0, symSize: 0x34 }
  - { offsetInCU: 0xC531, offset: 0xC531, size: 0x8, addend: 0x0, symName: __ZNSt3__115__list_iteratorIcPvEppB8ue170006Ev, symObjAddr: 0x867C, symBinAddr: 0x10000C9D4, symSize: 0x20 }
  - { offsetInCU: 0xC557, offset: 0xC557, size: 0x8, addend: 0x0, symName: __ZNSt3__14listIcNS_9allocatorIcEEE12__link_nodesEPNS_16__list_node_baseIcPvEES7_S7_, symObjAddr: 0x869C, symBinAddr: 0x10000C9F4, symSize: 0x50 }
  - { offsetInCU: 0xC59B, offset: 0xC59B, size: 0x8, addend: 0x0, symName: __ZNSt3__121__list_const_iteratorIcPvEC2B8ue170006ERKNS_15__list_iteratorIcS1_EE, symObjAddr: 0x86EC, symBinAddr: 0x10000CA44, symSize: 0x24 }
  - { offsetInCU: 0xC5D4, offset: 0xC5D4, size: 0x8, addend: 0x0, symName: __ZNSt3__14listIcNS_9allocatorIcEEE5clearB8ue170006Ev, symObjAddr: 0x8710, symBinAddr: 0x10000CA68, symSize: 0x24 }
  - { offsetInCU: 0xC5FA, offset: 0xC5FA, size: 0x8, addend: 0x0, symName: __ZNSt3__14listIcNS_9allocatorIcEEE3endB8ue170006Ev, symObjAddr: 0x8770, symBinAddr: 0x10000CAC8, symSize: 0x2C }
  - { offsetInCU: 0xC625, offset: 0xC625, size: 0x8, addend: 0x0, symName: __ZNSt3__14listIcNS_9allocatorIcEEE6insertINS_15__list_iteratorIcPvEEEES7_NS_21__list_const_iteratorIcS6_EET_SA_PNS_9enable_ifIXsr29__has_input_iterator_categoryISA_EE5valueEvE4typeE, symObjAddr: 0x87D4, symBinAddr: 0x10000CB2C, symSize: 0x60 }
  - { offsetInCU: 0xC68F, offset: 0xC68F, size: 0x8, addend: 0x0, symName: __ZNSt3__110__list_impIcNS_9allocatorIcEEE3endB8ue170006Ev, symObjAddr: 0x88F4, symBinAddr: 0x10000CC4C, symSize: 0x34 }
  - { offsetInCU: 0xC6B5, offset: 0xC6B5, size: 0x8, addend: 0x0, symName: __ZNSt3__115__list_iteratorIcPvEmmB8ue170006Ev, symObjAddr: 0x89E0, symBinAddr: 0x10000CD38, symSize: 0x20 }
  - { offsetInCU: 0xC6DB, offset: 0xC6DB, size: 0x8, addend: 0x0, symName: __ZNSt3__14listIcNS_9allocatorIcEEE22__insert_with_sentinelB8ue170006INS_15__list_iteratorIcPvEES7_EES7_NS_21__list_const_iteratorIcS6_EET_T0_, symObjAddr: 0x8A00, symBinAddr: 0x10000CD58, symSize: 0x32C }
  - { offsetInCU: 0xC7AC, offset: 0xC7AC, size: 0x8, addend: 0x0, symName: __ZNSt3__116allocator_traitsINS_9allocatorINS_11__list_nodeIcPvEEEEE9constructB8ue170006IcJRcEvEEvRS5_PT_DpOT0_, symObjAddr: 0x8D2C, symBinAddr: 0x10000D084, symSize: 0x34 }
  - { offsetInCU: 0xC803, offset: 0xC803, size: 0x8, addend: 0x0, symName: __ZNSt3__19allocatorINS_11__list_nodeIcPvEEE9constructB8ue170006IcJRcEEEvPT_DpOT0_, symObjAddr: 0x8D60, symBinAddr: 0x10000D0B8, symSize: 0x28 }
  - { offsetInCU: 0xC859, offset: 0xC859, size: 0x8, addend: 0x0, symName: __ZNSt3__14listIcNS_9allocatorIcEEE6insertENS_21__list_const_iteratorIcPvEEOc, symObjAddr: 0x8D88, symBinAddr: 0x10000D0E0, symSize: 0xF0 }
  - { offsetInCU: 0xC8CD, offset: 0xC8CD, size: 0x8, addend: 0x0, symName: __ZNSt3__14listIcNS_9allocatorIcEEE5eraseENS_21__list_const_iteratorIcPvEE, symObjAddr: 0x8E78, symBinAddr: 0x10000D1D0, symSize: 0xA0 }
  - { offsetInCU: 0xC945, offset: 0xC945, size: 0x8, addend: 0x0, symName: __ZNSt3__116allocator_traitsINS_9allocatorINS_11__list_nodeIcPvEEEEE9constructB8ue170006IcJcEvEEvRS5_PT_DpOT0_, symObjAddr: 0x8F18, symBinAddr: 0x10000D270, symSize: 0x34 }
  - { offsetInCU: 0xC99C, offset: 0xC99C, size: 0x8, addend: 0x0, symName: __ZNSt3__19allocatorINS_11__list_nodeIcPvEEE9constructB8ue170006IcJcEEEvPT_DpOT0_, symObjAddr: 0x8F4C, symBinAddr: 0x10000D2A4, symSize: 0x28 }
  - { offsetInCU: 0xC9F2, offset: 0xC9F2, size: 0x8, addend: 0x0, symName: __ZNSt3__14listIcNS_9allocatorIcEEE5eraseENS_21__list_const_iteratorIcPvEES6_, symObjAddr: 0x8FC8, symBinAddr: 0x10000D320, symSize: 0xE0 }
  - { offsetInCU: 0xCA81, offset: 0xCA81, size: 0x8, addend: 0x0, symName: __ZNKSt3__14listIcNS_9allocatorIcEEE5emptyB8ue170006Ev, symObjAddr: 0x90A8, symBinAddr: 0x10000D400, symSize: 0x28 }
  - { offsetInCU: 0xCAA7, offset: 0xCAA7, size: 0x8, addend: 0x0, symName: __ZNKSt3__112basic_stringIcNS_11char_traitsIcEENS_9allocatorIcEEE4dataB8ue170006Ev, symObjAddr: 0x92BC, symBinAddr: 0x10000D614, symSize: 0x28 }
  - { offsetInCU: 0xCACD, offset: 0xCACD, size: 0x8, addend: 0x0, symName: __ZNKSt3__112basic_stringIcNS_11char_traitsIcEENS_9allocatorIcEEE4sizeB8ue170006Ev, symObjAddr: 0x92E4, symBinAddr: 0x10000D63C, symSize: 0x54 }
  - { offsetInCU: 0xCB11, offset: 0xCB11, size: 0x8, addend: 0x0, symName: __ZNKSt3__113basic_ostreamIcNS_11char_traitsIcEEE6sentrycvbB8ue170006Ev, symObjAddr: 0x9338, symBinAddr: 0x10000D690, symSize: 0x1C }
  - { offsetInCU: 0xCB37, offset: 0xCB37, size: 0x8, addend: 0x0, symName: __ZNSt3__119ostreambuf_iteratorIcNS_11char_traitsIcEEEC1B8ue170006ERNS_13basic_ostreamIcS2_EE, symObjAddr: 0x9594, symBinAddr: 0x10000D8EC, symSize: 0x34 }
  - { offsetInCU: 0xCB6F, offset: 0xCB6F, size: 0x8, addend: 0x0, symName: __ZNKSt3__18ios_base5flagsB8ue170006Ev, symObjAddr: 0x95C8, symBinAddr: 0x10000D920, symSize: 0x18 }
  - { offsetInCU: 0xCB97, offset: 0xCB97, size: 0x8, addend: 0x0, symName: __ZNKSt3__19basic_iosIcNS_11char_traitsIcEEE4fillB8ue170006Ev, symObjAddr: 0x95E0, symBinAddr: 0x10000D938, symSize: 0x64 }
  - { offsetInCU: 0xCBBF, offset: 0xCBBF, size: 0x8, addend: 0x0, symName: __ZNKSt3__119ostreambuf_iteratorIcNS_11char_traitsIcEEE6failedB8ue170006Ev, symObjAddr: 0x9644, symBinAddr: 0x10000D99C, symSize: 0x24 }
  - { offsetInCU: 0xCBE5, offset: 0xCBE5, size: 0x8, addend: 0x0, symName: __ZNSt3__19basic_iosIcNS_11char_traitsIcEEE8setstateB8ue170006Ej, symObjAddr: 0x9668, symBinAddr: 0x10000D9C0, symSize: 0x2C }
  - { offsetInCU: 0xCC1A, offset: 0xCC1A, size: 0x8, addend: 0x0, symName: __ZNKSt3__18ios_base5widthB8ue170006Ev, symObjAddr: 0x9694, symBinAddr: 0x10000D9EC, symSize: 0x18 }
  - { offsetInCU: 0xCC42, offset: 0xCC42, size: 0x8, addend: 0x0, symName: __ZNSt3__115basic_streambufIcNS_11char_traitsIcEEE5sputnB8ue170006EPKcl, symObjAddr: 0x96AC, symBinAddr: 0x10000DA04, symSize: 0x3C }
  - { offsetInCU: 0xCC84, offset: 0xCC84, size: 0x8, addend: 0x0, symName: __ZNSt3__112basic_stringIcNS_11char_traitsIcEENS_9allocatorIcEEEC1B8ue170006Emc, symObjAddr: 0x96E8, symBinAddr: 0x10000DA40, symSize: 0x3C }
  - { offsetInCU: 0xCCCC, offset: 0xCCCC, size: 0x8, addend: 0x0, symName: __ZNSt3__112basic_stringIcNS_11char_traitsIcEENS_9allocatorIcEEE4dataB8ue170006Ev, symObjAddr: 0x9724, symBinAddr: 0x10000DA7C, symSize: 0x28 }
  - { offsetInCU: 0xCCF2, offset: 0xCCF2, size: 0x8, addend: 0x0, symName: __ZNSt3__18ios_base5widthB8ue170006El, symObjAddr: 0x974C, symBinAddr: 0x10000DAA4, symSize: 0x2C }
  - { offsetInCU: 0xCD38, offset: 0xCD38, size: 0x8, addend: 0x0, symName: __ZNSt3__112basic_stringIcNS_11char_traitsIcEENS_9allocatorIcEEEC2B8ue170006Emc, symObjAddr: 0x9778, symBinAddr: 0x10000DAD0, symSize: 0x4C }
  - { offsetInCU: 0xCD80, offset: 0xCD80, size: 0x8, addend: 0x0, symName: __ZNSt3__112basic_stringIcNS_11char_traitsIcEENS_9allocatorIcEEE13__get_pointerB8ue170006Ev, symObjAddr: 0x97D8, symBinAddr: 0x10000DB30, symSize: 0x54 }
  - { offsetInCU: 0xCDA6, offset: 0xCDA6, size: 0x8, addend: 0x0, symName: __ZNKSt3__112basic_stringIcNS_11char_traitsIcEENS_9allocatorIcEEE9__is_longB8ue170006Ev, symObjAddr: 0x982C, symBinAddr: 0x10000DB84, symSize: 0x38 }
  - { offsetInCU: 0xCDCC, offset: 0xCDCC, size: 0x8, addend: 0x0, symName: __ZNSt3__112basic_stringIcNS_11char_traitsIcEENS_9allocatorIcEEE18__get_long_pointerB8ue170006Ev, symObjAddr: 0x9864, symBinAddr: 0x10000DBBC, symSize: 0x28 }
  - { offsetInCU: 0xCDF2, offset: 0xCDF2, size: 0x8, addend: 0x0, symName: __ZNSt3__112basic_stringIcNS_11char_traitsIcEENS_9allocatorIcEEE19__get_short_pointerB8ue170006Ev, symObjAddr: 0x988C, symBinAddr: 0x10000DBE4, symSize: 0x28 }
  - { offsetInCU: 0xCE18, offset: 0xCE18, size: 0x8, addend: 0x0, symName: __ZNKSt3__117__compressed_pairINS_12basic_stringIcNS_11char_traitsIcEENS_9allocatorIcEEE5__repES5_E5firstB8ue170006Ev, symObjAddr: 0x98B4, symBinAddr: 0x10000DC0C, symSize: 0x24 }
  - { offsetInCU: 0xCE3E, offset: 0xCE3E, size: 0x8, addend: 0x0, symName: __ZNKSt3__122__compressed_pair_elemINS_12basic_stringIcNS_11char_traitsIcEENS_9allocatorIcEEE5__repELi0ELb0EE5__getB8ue170006Ev, symObjAddr: 0x98D8, symBinAddr: 0x10000DC30, symSize: 0x14 }
  - { offsetInCU: 0xCE64, offset: 0xCE64, size: 0x8, addend: 0x0, symName: __ZNSt3__114pointer_traitsIPcE10pointer_toB8ue170006ERc, symObjAddr: 0x98EC, symBinAddr: 0x10000DC44, symSize: 0x14 }
  - { offsetInCU: 0xCE87, offset: 0xCE87, size: 0x8, addend: 0x0, symName: __ZNSt3__119ostreambuf_iteratorIcNS_11char_traitsIcEEEC2B8ue170006ERNS_13basic_ostreamIcS2_EE, symObjAddr: 0x9900, symBinAddr: 0x10000DC58, symSize: 0x54 }
  - { offsetInCU: 0xCEBF, offset: 0xCEBF, size: 0x8, addend: 0x0, symName: __ZNKSt3__19basic_iosIcNS_11char_traitsIcEEE5rdbufB8ue170006Ev, symObjAddr: 0x9954, symBinAddr: 0x10000DCAC, symSize: 0x24 }
  - { offsetInCU: 0xCEE7, offset: 0xCEE7, size: 0x8, addend: 0x0, symName: __ZNKSt3__18ios_base5rdbufB8ue170006Ev, symObjAddr: 0x9978, symBinAddr: 0x10000DCD0, symSize: 0x18 }
  - { offsetInCU: 0xCF0D, offset: 0xCF0D, size: 0x8, addend: 0x0, symName: __ZNSt3__111char_traitsIcE11eq_int_typeB8ue170006Eii, symObjAddr: 0x9990, symBinAddr: 0x10000DCE8, symSize: 0x28 }
  - { offsetInCU: 0xCF40, offset: 0xCF40, size: 0x8, addend: 0x0, symName: __ZNSt3__111char_traitsIcE3eofB8ue170006Ev, symObjAddr: 0x99B8, symBinAddr: 0x10000DD10, symSize: 0x8 }
  - { offsetInCU: 0xCF54, offset: 0xCF54, size: 0x8, addend: 0x0, symName: __ZNKSt3__19basic_iosIcNS_11char_traitsIcEEE5widenB8ue170006Ec, symObjAddr: 0x99C0, symBinAddr: 0x10000DD18, symSize: 0x84 }
  - { offsetInCU: 0xCFC2, offset: 0xCFC2, size: 0x8, addend: 0x0, symName: __ZNKSt3__15ctypeIcE5widenB8ue170006Ec, symObjAddr: 0x9A70, symBinAddr: 0x10000DDC8, symSize: 0x38 }
  - { offsetInCU: 0xCFF7, offset: 0xCFF7, size: 0x8, addend: 0x0, symName: __ZNSt3__18ios_base8setstateB8ue170006Ej, symObjAddr: 0x9AA8, symBinAddr: 0x10000DE00, symSize: 0x34 }
  - { offsetInCU: 0xD02E, offset: 0xD02E, size: 0x8, addend: 0x0, symName: __ZNKSt3__112basic_stringIcNS_11char_traitsIcEENS_9allocatorIcEEE13__get_pointerB8ue170006Ev, symObjAddr: 0x9AF0, symBinAddr: 0x10000DE48, symSize: 0x54 }
  - { offsetInCU: 0xD054, offset: 0xD054, size: 0x8, addend: 0x0, symName: __ZNKSt3__112basic_stringIcNS_11char_traitsIcEENS_9allocatorIcEEE18__get_long_pointerB8ue170006Ev, symObjAddr: 0x9B44, symBinAddr: 0x10000DE9C, symSize: 0x28 }
  - { offsetInCU: 0xD07A, offset: 0xD07A, size: 0x8, addend: 0x0, symName: __ZNKSt3__112basic_stringIcNS_11char_traitsIcEENS_9allocatorIcEEE19__get_short_pointerB8ue170006Ev, symObjAddr: 0x9B6C, symBinAddr: 0x10000DEC4, symSize: 0x28 }
  - { offsetInCU: 0xD0A0, offset: 0xD0A0, size: 0x8, addend: 0x0, symName: __ZNSt3__114pointer_traitsIPKcE10pointer_toB8ue170006ERS1_, symObjAddr: 0x9B94, symBinAddr: 0x10000DEEC, symSize: 0x14 }
  - { offsetInCU: 0xD0C3, offset: 0xD0C3, size: 0x8, addend: 0x0, symName: __ZNKSt3__112basic_stringIcNS_11char_traitsIcEENS_9allocatorIcEEE15__get_long_sizeB8ue170006Ev, symObjAddr: 0x9BA8, symBinAddr: 0x10000DF00, symSize: 0x28 }
  - { offsetInCU: 0xD0E9, offset: 0xD0E9, size: 0x8, addend: 0x0, symName: __ZNKSt3__112basic_stringIcNS_11char_traitsIcEENS_9allocatorIcEEE16__get_short_sizeB8ue170006Ev, symObjAddr: 0x9BD0, symBinAddr: 0x10000DF28, symSize: 0x34 }
  - { offsetInCU: 0xD10F, offset: 0xD10F, size: 0x8, addend: 0x0, symName: __ZNSt3__113basic_ostreamIcNS_11char_traitsIcEEElsB8ue170006EPFRNS_8ios_baseES5_E, symObjAddr: 0x9C38, symBinAddr: 0x10000DF90, symSize: 0x40 }
  - { offsetInCU: 0xD143, offset: 0xD143, size: 0x8, addend: 0x0, symName: __ZNSt3__111char_traitsIcE7compareB8ue170006EPKcS3_m, symObjAddr: 0x9DEC, symBinAddr: 0x10000E144, symSize: 0x34 }
  - { offsetInCU: 0xD182, offset: 0xD182, size: 0x8, addend: 0x0, symName: __ZNSt3__18ios_base4setfB8ue170006Ej, symObjAddr: 0x9E20, symBinAddr: 0x10000E178, symSize: 0x34 }
  - { offsetInCU: 0xD1C8, offset: 0xD1C8, size: 0x8, addend: 0x0, symName: __ZNSt3__112basic_stringIcNS_11char_traitsIcEENS_9allocatorIcEEEC2B8ue170006ILi0EEEPKc, symObjAddr: 0x9E54, symBinAddr: 0x10000E1AC, symSize: 0x58 }
  - { offsetInCU: 0xD207, offset: 0xD207, size: 0x8, addend: 0x0, symName: __ZNSt3__111char_traitsIcE6lengthB8ue170006EPKc, symObjAddr: 0x9EAC, symBinAddr: 0x10000E204, symSize: 0x34 }
  - { offsetInCU: 0xD22A, offset: 0xD22A, size: 0x8, addend: 0x0, symName: __ZNKSt3__112basic_stringIcNS_11char_traitsIcEENS_9allocatorIcEEE21__make_const_iteratorB8ue170006EPKc, symObjAddr: 0x9F04, symBinAddr: 0x10000E25C, symSize: 0x30 }
  - { offsetInCU: 0xD25F, offset: 0xD25F, size: 0x8, addend: 0x0, symName: __ZNSt3__111__wrap_iterIPKcEC1B8ue170006ES2_, symObjAddr: 0x9F34, symBinAddr: 0x10000E28C, symSize: 0x34 }
  - { offsetInCU: 0xD297, offset: 0xD297, size: 0x8, addend: 0x0, symName: __ZNSt3__111__wrap_iterIPKcEC2B8ue170006ES2_, symObjAddr: 0x9F68, symBinAddr: 0x10000E2C0, symSize: 0x20 }
  - { offsetInCU: 0xD2CF, offset: 0xD2CF, size: 0x8, addend: 0x0, symName: __ZNSt3__112basic_stringIcNS_11char_traitsIcEENS_9allocatorIcEEEC2B8ue170006ESt16initializer_listIcE, symObjAddr: 0x9F88, symBinAddr: 0x10000E2E0, symSize: 0x6C }
  - { offsetInCU: 0xD308, offset: 0xD308, size: 0x8, addend: 0x0, symName: __ZNSt3__112basic_stringIcNS_11char_traitsIcEENS_9allocatorIcEEE6__initIPKcLi0EEEvT_S9_, symObjAddr: 0x9FF4, symBinAddr: 0x10000E34C, symSize: 0x54 }
  - { offsetInCU: 0xD36C, offset: 0xD36C, size: 0x8, addend: 0x0, symName: __ZNKSt16initializer_listIcE5beginB8ue170006Ev, symObjAddr: 0xA048, symBinAddr: 0x10000E3A0, symSize: 0x18 }
  - { offsetInCU: 0xD392, offset: 0xD392, size: 0x8, addend: 0x0, symName: __ZNKSt16initializer_listIcE3endB8ue170006Ev, symObjAddr: 0xA060, symBinAddr: 0x10000E3B8, symSize: 0x20 }
  - { offsetInCU: 0xD3B8, offset: 0xD3B8, size: 0x8, addend: 0x0, symName: __ZNSt3__112basic_stringIcNS_11char_traitsIcEENS_9allocatorIcEEE16__init_with_sizeB8ue170006IPKcS8_EEvT_T0_m, symObjAddr: 0xA0AC, symBinAddr: 0x10000E404, symSize: 0x144 }
  - { offsetInCU: 0xD44B, offset: 0xD44B, size: 0x8, addend: 0x0, symName: __ZNKSt3__112basic_stringIcNS_11char_traitsIcEENS_9allocatorIcEEE8max_sizeB8ue170006Ev, symObjAddr: 0xA210, symBinAddr: 0x10000E568, symSize: 0xAC }
  - { offsetInCU: 0xD49D, offset: 0xD49D, size: 0x8, addend: 0x0, symName: __ZNKSt3__112basic_stringIcNS_11char_traitsIcEENS_9allocatorIcEEE20__throw_length_errorB8ue170006Ev, symObjAddr: 0xA2BC, symBinAddr: 0x10000E614, symSize: 0x1C }
  - { offsetInCU: 0xD4C3, offset: 0xD4C3, size: 0x8, addend: 0x0, symName: __ZNSt3__112basic_stringIcNS_11char_traitsIcEENS_9allocatorIcEEE13__fits_in_ssoB8ue170006Em, symObjAddr: 0xA2D8, symBinAddr: 0x10000E630, symSize: 0x20 }
  - { offsetInCU: 0xD4E7, offset: 0xD4E7, size: 0x8, addend: 0x0, symName: __ZNSt3__112basic_stringIcNS_11char_traitsIcEENS_9allocatorIcEEE16__set_short_sizeB8ue170006Em, symObjAddr: 0xA2F8, symBinAddr: 0x10000E650, symSize: 0x78 }
  - { offsetInCU: 0xD51C, offset: 0xD51C, size: 0x8, addend: 0x0, symName: __ZNSt3__112basic_stringIcNS_11char_traitsIcEENS_9allocatorIcEEE7__allocB8ue170006Ev, symObjAddr: 0xA3B0, symBinAddr: 0x10000E708, symSize: 0x24 }
  - { offsetInCU: 0xD542, offset: 0xD542, size: 0x8, addend: 0x0, symName: __ZNSt3__112basic_stringIcNS_11char_traitsIcEENS_9allocatorIcEEE11__recommendB8ue170006Em, symObjAddr: 0xA3D4, symBinAddr: 0x10000E72C, symSize: 0x84 }
  - { offsetInCU: 0xD575, offset: 0xD575, size: 0x8, addend: 0x0, symName: __ZNSt3__112basic_stringIcNS_11char_traitsIcEENS_9allocatorIcEEE16__begin_lifetimeB8ue170006EPcm, symObjAddr: 0xA458, symBinAddr: 0x10000E7B0, symSize: 0x14 }
  - { offsetInCU: 0xD5A8, offset: 0xD5A8, size: 0x8, addend: 0x0, symName: __ZNSt3__112basic_stringIcNS_11char_traitsIcEENS_9allocatorIcEEE18__set_long_pointerB8ue170006EPc, symObjAddr: 0xA46C, symBinAddr: 0x10000E7C4, symSize: 0x38 }
  - { offsetInCU: 0xD5DD, offset: 0xD5DD, size: 0x8, addend: 0x0, symName: __ZNSt3__112basic_stringIcNS_11char_traitsIcEENS_9allocatorIcEEE14__set_long_capB8ue170006Em, symObjAddr: 0xA4A4, symBinAddr: 0x10000E7FC, symSize: 0x70 }
  - { offsetInCU: 0xD612, offset: 0xD612, size: 0x8, addend: 0x0, symName: __ZNSt3__112basic_stringIcNS_11char_traitsIcEENS_9allocatorIcEEE15__set_long_sizeB8ue170006Em, symObjAddr: 0xA514, symBinAddr: 0x10000E86C, symSize: 0x38 }
  - { offsetInCU: 0xD647, offset: 0xD647, size: 0x8, addend: 0x0, symName: __ZNSt3__111char_traitsIcE6assignB8ue170006ERcRKc, symObjAddr: 0xA54C, symBinAddr: 0x10000E8A4, symSize: 0x24 }
  - { offsetInCU: 0xD682, offset: 0xD682, size: 0x8, addend: 0x0, symName: __ZNSt3__116allocator_traitsINS_9allocatorIcEEE8max_sizeB8ue170006IS2_vEEmRKS2_, symObjAddr: 0xA570, symBinAddr: 0x10000E8C8, symSize: 0x24 }
  - { offsetInCU: 0xD6B0, offset: 0xD6B0, size: 0x8, addend: 0x0, symName: __ZNKSt3__112basic_stringIcNS_11char_traitsIcEENS_9allocatorIcEEE7__allocB8ue170006Ev, symObjAddr: 0xA594, symBinAddr: 0x10000E8EC, symSize: 0x24 }
  - { offsetInCU: 0xD6D6, offset: 0xD6D6, size: 0x8, addend: 0x0, symName: __ZNSt3__114numeric_limitsImE3maxB8ue170006Ev, symObjAddr: 0xA5B8, symBinAddr: 0x10000E910, symSize: 0x14 }
  - { offsetInCU: 0xD6EA, offset: 0xD6EA, size: 0x8, addend: 0x0, symName: __ZNKSt3__19allocatorIcE8max_sizeB8ue170006Ev, symObjAddr: 0xA5CC, symBinAddr: 0x10000E924, symSize: 0x14 }
  - { offsetInCU: 0xD710, offset: 0xD710, size: 0x8, addend: 0x0, symName: __ZNKSt3__117__compressed_pairINS_12basic_stringIcNS_11char_traitsIcEENS_9allocatorIcEEE5__repES5_E6secondB8ue170006Ev, symObjAddr: 0xA5E0, symBinAddr: 0x10000E938, symSize: 0x24 }
  - { offsetInCU: 0xD736, offset: 0xD736, size: 0x8, addend: 0x0, symName: __ZNKSt3__122__compressed_pair_elemINS_9allocatorIcEELi1ELb1EE5__getB8ue170006Ev, symObjAddr: 0xA604, symBinAddr: 0x10000E95C, symSize: 0x14 }
  - { offsetInCU: 0xD75C, offset: 0xD75C, size: 0x8, addend: 0x0, symName: __ZNSt3__123__libcpp_numeric_limitsImLb1EE3maxB8ue170006Ev, symObjAddr: 0xA618, symBinAddr: 0x10000E970, symSize: 0x8 }
  - { offsetInCU: 0xD770, offset: 0xD770, size: 0x8, addend: 0x0, symName: __ZNSt12length_errorC1B8ue170006EPKc, symObjAddr: 0xA684, symBinAddr: 0x10000E9DC, symSize: 0x34 }
  - { offsetInCU: 0xD7A8, offset: 0xD7A8, size: 0x8, addend: 0x0, symName: __ZNSt12length_errorC2B8ue170006EPKc, symObjAddr: 0xA6B8, symBinAddr: 0x10000EA10, symSize: 0x4C }
  - { offsetInCU: 0xD7E0, offset: 0xD7E0, size: 0x8, addend: 0x0, symName: __ZNSt3__19allocatorIcE8allocateB8ue170006Em, symObjAddr: 0xA704, symBinAddr: 0x10000EA5C, symSize: 0x58 }
  - { offsetInCU: 0xD814, offset: 0xD814, size: 0x8, addend: 0x0, symName: __ZNSt3__117__compressed_pairINS_12basic_stringIcNS_11char_traitsIcEENS_9allocatorIcEEE5__repES5_E6secondB8ue170006Ev, symObjAddr: 0xA75C, symBinAddr: 0x10000EAB4, symSize: 0x24 }
  - { offsetInCU: 0xD83A, offset: 0xD83A, size: 0x8, addend: 0x0, symName: __ZNSt3__122__compressed_pair_elemINS_9allocatorIcEELi1ELb1EE5__getB8ue170006Ev, symObjAddr: 0xA780, symBinAddr: 0x10000EAD8, symSize: 0x14 }
  - { offsetInCU: 0xD860, offset: 0xD860, size: 0x8, addend: 0x0, symName: __ZNSt3__112basic_stringIcNS_11char_traitsIcEENS_9allocatorIcEEE10__align_itB8ue170006ILm16EEEmm, symObjAddr: 0xA794, symBinAddr: 0x10000EAEC, symSize: 0x1C }
...
