---
triple:          'arm64-apple-darwin'
binary-path:     '/Users/varvbar/projects/practicum/sprint7/T1/exersises'
relocations:
  - { offsetInCU: 0x4D9F, offset: 0x4D9F, size: 0x8, addend: 0x0, symName: __ZNSt3__16chronomiB8ue170006IxNS_5ratioILl1ELl1000000000EEExS3_EENS_11common_typeIJNS0_8durationIT_T0_EENS5_IT1_T2_EEEE4typeERKS8_RKSB_, symObjAddr: 0xD44, symBinAddr: 0x100003D8C, symSize: 0x70 }
  - { offsetInCU: 0x5325, offset: 0x5325, size: 0x8, addend: 0x0, symName: __ZNSt3__16chronomiB8ue170006INS0_12steady_clockENS0_8durationIxNS_5ratioILl1ELl1000000000EEEEES6_EENS_11common_typeIJT0_T1_EE4typeERKNS0_10time_pointIT_S8_EERKNSC_ISD_S9_EE, symObjAddr: 0xC0C, symBinAddr: 0x100003C54, symSize: 0x58 }
  - { offsetInCU: 0x537D, offset: 0x537D, size: 0x8, addend: 0x0, symName: __ZNSt3__16chrono13duration_castB8ue170006INS0_8durationIxNS_5ratioILl1ELl1000EEEEExNS3_ILl1ELl1000000000EEEEENS_9enable_ifIXsr13__is_durationIT_EE5valueES8_E4typeERKNS2_IT0_T1_EE, symObjAddr: 0xCFC, symBinAddr: 0x100003D44, symSize: 0x30 }
  - { offsetInCU: 0x5464, offset: 0x5464, size: 0x8, addend: 0x0, symName: __ZNSt3__124__put_character_sequenceB8ue170006IcNS_11char_traitsIcEEEERNS_13basic_ostreamIT_T0_EES7_PKS4_m, symObjAddr: 0xE50, symBinAddr: 0x100003E98, symSize: 0x1EC }
  - { offsetInCU: 0x8454, offset: 0x8454, size: 0x8, addend: 0x0, symName: __ZNSt3__111__introsortINS_17_ClassicAlgPolicyERNS_6__lessIvvEENS_16__deque_iteratorIiPiRiPS6_lLl1024EEELb0EEEvT1_SA_T0_NS_15iterator_traitsISA_E15difference_typeEb, symObjAddr: 0x7A64, symBinAddr: 0x10000AAAC, symSize: 0x7C4 }
  - { offsetInCU: 0x85B8, offset: 0x85B8, size: 0x8, addend: 0x0, symName: __ZNSt3__126__insertion_sort_unguardedB8ue170006INS_17_ClassicAlgPolicyERNS_6__lessIvvEENS_16__deque_iteratorIiPiRiPS6_lLl1024EEEEEvT1_SA_T0_, symObjAddr: 0x868C, symBinAddr: 0x10000B6D4, symSize: 0x19C }
  - { offsetInCU: 0x86AC, offset: 0x86AC, size: 0x8, addend: 0x0, symName: __ZNSt3__111__sift_downB8ue170006INS_17_ClassicAlgPolicyERNS_6__lessIvvEENS_16__deque_iteratorIiPiRiPS6_lLl1024EEEEEvT1_OT0_NS_15iterator_traitsISA_E15difference_typeESA_, symObjAddr: 0x9FEC, symBinAddr: 0x10000D034, symSize: 0x2FC }
  - { offsetInCU: 0x875C, offset: 0x875C, size: 0x8, addend: 0x0, symName: __ZNSt3__117__floyd_sift_downB8ue170006INS_17_ClassicAlgPolicyERNS_6__lessIvvEENS_16__deque_iteratorIiPiRiPS6_lLl1024EEEEET1_SA_OT0_NS_15iterator_traitsISA_E15difference_typeE, symObjAddr: 0xA51C, symBinAddr: 0x10000D564, symSize: 0x158 }
  - { offsetInCU: 0x87F5, offset: 0x87F5, size: 0x8, addend: 0x0, symName: __ZNSt3__131__partition_with_equals_on_leftB8ue170006INS_17_ClassicAlgPolicyENS_16__deque_iteratorIiPiRiPS3_lLl1024EEERNS_6__lessIvvEEEET0_SA_SA_T1_, symObjAddr: 0x8B78, symBinAddr: 0x10000BBC0, symSize: 0x2A4 }
  - { offsetInCU: 0x88B4, offset: 0x88B4, size: 0x8, addend: 0x0, symName: __ZNSt3__118__bitset_partitionB8ue170006INS_17_ClassicAlgPolicyENS_16__deque_iteratorIiPiRiPS3_lLl1024EEERNS_6__lessIvvEEEENS_4pairIT0_bEESB_SB_T1_, symObjAddr: 0x8E1C, symBinAddr: 0x10000BE64, symSize: 0x3E4 }
  - { offsetInCU: 0x89B3, offset: 0x89B3, size: 0x8, addend: 0x0, symName: __ZNSt3__124__swap_bitmap_pos_withinB8ue170006INS_17_ClassicAlgPolicyENS_16__deque_iteratorIiPiRiPS3_lLl1024EEEEEvRT0_S8_RyS9_, symObjAddr: 0xAF8C, symBinAddr: 0x10000DFD4, symSize: 0x1CC }
  - { offsetInCU: 0x8A80, offset: 0x8A80, size: 0x8, addend: 0x0, symName: __ZNSt3__132__partition_with_equals_on_rightB8ue170006INS_17_ClassicAlgPolicyENS_16__deque_iteratorIiPiRiPS3_lLl1024EEERNS_6__lessIvvEEEENS_4pairIT0_bEESB_SB_T1_, symObjAddr: 0x9200, symBinAddr: 0x10000C248, symSize: 0x284 }
  - { offsetInCU: 0x8B4E, offset: 0x8B4E, size: 0x8, addend: 0x0, symName: __ZNSt3__127__insertion_sort_incompleteB8ue170006INS_17_ClassicAlgPolicyERNS_6__lessIvvEENS_16__deque_iteratorIiPiRiPS6_lLl1024EEEEEbT1_SA_T0_, symObjAddr: 0x9484, symBinAddr: 0x10000C4CC, symSize: 0x4A4 }
  - { offsetInCU: 0x916D, offset: 0x916D, size: 0x8, addend: 0x0, symName: __ZNSt3__18literals15string_literalsli1sB8ue170006EPKcm, symObjAddr: 0xCBC, symBinAddr: 0x100003D04, symSize: 0x40 }
  - { offsetInCU: 0x9987, offset: 0x9987, size: 0x8, addend: 0x0, symName: __ZNSt3__14sortB8ue170006INS_11__wrap_iterIPiEEEEvT_S4_, symObjAddr: 0x51C, symBinAddr: 0x100003564, symSize: 0x3C }
  - { offsetInCU: 0x99C9, offset: 0x99C9, size: 0x8, addend: 0x0, symName: __ZNSt3__14endlB8ue170006IcNS_11char_traitsIcEEEERNS_13basic_ostreamIT_T0_EES7_, symObjAddr: 0x63C, symBinAddr: 0x100003684, symSize: 0x58 }
  - { offsetInCU: 0x9A09, offset: 0x9A09, size: 0x8, addend: 0x0, symName: __ZNSt3__14sortB8ue170006INS_16__deque_iteratorIiPiRiPS2_lLl1024EEEEEvT_S6_, symObjAddr: 0x76C, symBinAddr: 0x1000037B4, symSize: 0x4C }
  - { offsetInCU: 0x9A4B, offset: 0x9A4B, size: 0x8, addend: 0x0, symName: __ZNSt3__1lsB8ue170006INS_11char_traitsIcEEEERNS_13basic_ostreamIcT_EES6_PKc, symObjAddr: 0x9AC, symBinAddr: 0x1000039F4, symSize: 0x48 }
  - { offsetInCU: 0x9A91, offset: 0x9A91, size: 0x8, addend: 0x0, symName: __ZNSt3__1lsB8ue170006IcNS_11char_traitsIcEENS_9allocatorIcEEEERNS_13basic_ostreamIT_T0_EES9_RKNS_12basic_stringIS6_S7_T1_EE, symObjAddr: 0xC70, symBinAddr: 0x100003CB8, symSize: 0x4C }
  - { offsetInCU: 0x9B05, offset: 0x9B05, size: 0x8, addend: 0x0, symName: __ZNSt3__116__pad_and_outputB8ue170006IcNS_11char_traitsIcEEEENS_19ostreambuf_iteratorIT_T0_EES6_PKS4_S8_S8_RNS_8ios_baseES4_, symObjAddr: 0x10D4, symBinAddr: 0x10000411C, symSize: 0x240 }
  - { offsetInCU: 0x9BD4, offset: 0x9BD4, size: 0x8, addend: 0x0, symName: __ZNSt3__112__to_addressB8ue170006IcEEPT_S2_, symObjAddr: 0x163C, symBinAddr: 0x100004684, symSize: 0x14 }
  - { offsetInCU: 0x9C3C, offset: 0x9C3C, size: 0x8, addend: 0x0, symName: __ZNSt3__19use_facetB8ue170006INS_5ctypeIcEEEERKT_RKNS_6localeE, symObjAddr: 0x18F4, symBinAddr: 0x10000493C, symSize: 0x2C }
  - { offsetInCU: 0xA109, offset: 0xA109, size: 0x8, addend: 0x0, symName: __ZNSt3__112__to_addressB8ue170006IKcEEPT_S3_, symObjAddr: 0x198C, symBinAddr: 0x1000049D4, symSize: 0x14 }
  - { offsetInCU: 0xA171, offset: 0xA171, size: 0x8, addend: 0x0, symName: __ZNSt3__118__constexpr_strlenB8ue170006EPKc, symObjAddr: 0x1C78, symBinAddr: 0x100004CC0, symSize: 0x24 }
  - { offsetInCU: 0xA19D, offset: 0xA19D, size: 0x8, addend: 0x0, symName: __ZNSt3__112__to_addressB8ue170006IiEEPT_S2_, symObjAddr: 0x2148, symBinAddr: 0x100005190, symSize: 0x14 }
  - { offsetInCU: 0xA1D2, offset: 0xA1D2, size: 0x8, addend: 0x0, symName: __ZNSt3__119__libcpp_deallocateB8ue170006EPvmm, symObjAddr: 0x2220, symBinAddr: 0x100005268, symSize: 0x60 }
  - { offsetInCU: 0xA237, offset: 0xA237, size: 0x8, addend: 0x0, symName: __ZNSt3__124__is_overaligned_for_newB8ue170006Em, symObjAddr: 0x2280, symBinAddr: 0x1000052C8, symSize: 0x20 }
  - { offsetInCU: 0xA265, offset: 0xA265, size: 0x8, addend: 0x0, symName: __ZNSt3__127__do_deallocate_handle_sizeB8ue170006IJSt11align_val_tEEEvPvmDpT_, symObjAddr: 0x22A0, symBinAddr: 0x1000052E8, symSize: 0x30 }
  - { offsetInCU: 0xA2B8, offset: 0xA2B8, size: 0x8, addend: 0x0, symName: __ZNSt3__127__do_deallocate_handle_sizeB8ue170006IJEEEvPvmDpT_, symObjAddr: 0x22D0, symBinAddr: 0x100005318, symSize: 0x28 }
  - { offsetInCU: 0xA2F6, offset: 0xA2F6, size: 0x8, addend: 0x0, symName: __ZNSt3__124__libcpp_operator_deleteB8ue170006IJPvSt11align_val_tEEEvDpT_, symObjAddr: 0x22F8, symBinAddr: 0x100005340, symSize: 0x2C }
  - { offsetInCU: 0xA33F, offset: 0xA33F, size: 0x8, addend: 0x0, symName: __ZNSt3__124__libcpp_operator_deleteB8ue170006IJPvEEEvDpT_, symObjAddr: 0x2324, symBinAddr: 0x10000536C, symSize: 0x24 }
  - { offsetInCU: 0xA374, offset: 0xA374, size: 0x8, addend: 0x0, symName: __ZNSt3__13maxB8ue170006ImEERKT_S3_S3_, symObjAddr: 0x2980, symBinAddr: 0x1000059C8, symSize: 0x2C }
  - { offsetInCU: 0xA3B7, offset: 0xA3B7, size: 0x8, addend: 0x0, symName: __ZNSt3__13minB8ue170006ImEERKT_S3_S3_, symObjAddr: 0x29AC, symBinAddr: 0x1000059F4, symSize: 0x2C }
  - { offsetInCU: 0xA5E4, offset: 0xA5E4, size: 0x8, addend: 0x0, symName: __ZNSt3__13minB8ue170006ImNS_6__lessIvvEEEERKT_S5_S5_T0_, symObjAddr: 0x2A38, symBinAddr: 0x100005A80, symSize: 0x54 }
  - { offsetInCU: 0xA6B4, offset: 0xA6B4, size: 0x8, addend: 0x0, symName: __ZNSt3__120__throw_length_errorB8ue170006EPKc, symObjAddr: 0x2B14, symBinAddr: 0x100005B5C, symSize: 0x64 }
  - { offsetInCU: 0xA6DE, offset: 0xA6DE, size: 0x8, addend: 0x0, symName: __ZNSt3__13maxB8ue170006ImNS_6__lessIvvEEEERKT_S5_S5_T0_, symObjAddr: 0x2BF8, symBinAddr: 0x100005C40, symSize: 0x54 }
  - { offsetInCU: 0xA738, offset: 0xA738, size: 0x8, addend: 0x0, symName: __ZNSt3__119__allocate_at_leastB8ue170006INS_9allocatorIiEEEENS_19__allocation_resultINS_16allocator_traitsIT_E7pointerEEERS5_m, symObjAddr: 0x2D5C, symBinAddr: 0x100005DA4, symSize: 0x40 }
  - { offsetInCU: 0xA77B, offset: 0xA77B, size: 0x8, addend: 0x0, symName: __ZNSt3__117__libcpp_allocateB8ue170006Emm, symObjAddr: 0x2EE0, symBinAddr: 0x100005F28, symSize: 0x60 }
  - { offsetInCU: 0xA7D5, offset: 0xA7D5, size: 0x8, addend: 0x0, symName: __ZNSt3__121__libcpp_operator_newB8ue170006IJmSt11align_val_tEEEPvDpT_, symObjAddr: 0x2F40, symBinAddr: 0x100005F88, symSize: 0x2C }
  - { offsetInCU: 0xA822, offset: 0xA822, size: 0x8, addend: 0x0, symName: __ZNSt3__121__libcpp_operator_newB8ue170006IJmEEEPvDpT_, symObjAddr: 0x2F6C, symBinAddr: 0x100005FB4, symSize: 0x24 }
  - { offsetInCU: 0xA85B, offset: 0xA85B, size: 0x8, addend: 0x0, symName: __ZNSt3__142__uninitialized_allocator_move_if_noexceptB8ue170006INS_9allocatorIiEENS_16reverse_iteratorIPiEES5_ivEET1_RT_T0_S9_S6_, symObjAddr: 0x2FF4, symBinAddr: 0x10000603C, symSize: 0x78 }
  - { offsetInCU: 0xA8D8, offset: 0xA8D8, size: 0x8, addend: 0x0, symName: __ZNSt3__14swapB8ue170006IPiEENS_9enable_ifIXaasr21is_move_constructibleIT_EE5valuesr18is_move_assignableIS3_EE5valueEvE4typeERS3_S6_, symObjAddr: 0x30B8, symBinAddr: 0x100006100, symSize: 0x3C }
  - { offsetInCU: 0xA929, offset: 0xA929, size: 0x8, addend: 0x0, symName: __ZNSt3__14moveB8ue170006INS_16reverse_iteratorIPiEES3_EET0_T_S5_S4_, symObjAddr: 0x31A0, symBinAddr: 0x1000061E8, symSize: 0x78 }
  - { offsetInCU: 0xA983, offset: 0xA983, size: 0x8, addend: 0x0, symName: __ZNSt3__16__moveB8ue170006INS_17_ClassicAlgPolicyENS_16reverse_iteratorIPiEES4_S4_EENS_4pairIT0_T2_EES6_T1_S7_, symObjAddr: 0x3218, symBinAddr: 0x100006260, symSize: 0x64 }
  - { offsetInCU: 0xA9EF, offset: 0xA9EF, size: 0x8, addend: 0x0, symName: __ZNSt3__123__dispatch_copy_or_moveB8ue170006INS_17_ClassicAlgPolicyENS_11__move_loopIS1_EENS_14__move_trivialENS_16reverse_iteratorIPiEES7_S7_EENS_4pairIT2_T4_EES9_T3_SA_, symObjAddr: 0x327C, symBinAddr: 0x1000062C4, symSize: 0x64 }
  - { offsetInCU: 0xAA6D, offset: 0xAA6D, size: 0x8, addend: 0x0, symName: __ZNSt3__121__unwrap_and_dispatchB8ue170006INS_10__overloadINS_11__move_loopINS_17_ClassicAlgPolicyEEENS_14__move_trivialEEENS_16reverse_iteratorIPiEES9_S9_Li0EEENS_4pairIT0_T2_EESB_T1_SC_, symObjAddr: 0x32E0, symBinAddr: 0x100006328, symSize: 0x12C }
  - { offsetInCU: 0xAAFD, offset: 0xAAFD, size: 0x8, addend: 0x0, symName: __ZNSt3__114__unwrap_rangeB8ue170006INS_16reverse_iteratorIPiEES3_EENS_4pairIT0_S5_EET_S7_, symObjAddr: 0x340C, symBinAddr: 0x100006454, symSize: 0x84 }
  - { offsetInCU: 0xAC78, offset: 0xAC78, size: 0x8, addend: 0x0, symName: __ZNSt3__113__unwrap_iterB8ue170006INS_16reverse_iteratorIPiEENS_18__unwrap_iter_implIS3_Lb0EEELi0EEEDTclsrT0_8__unwrapclsr3stdE7declvalIT_EEEES7_, symObjAddr: 0x3530, symBinAddr: 0x100006578, symSize: 0x44 }
  - { offsetInCU: 0xACBC, offset: 0xACBC, size: 0x8, addend: 0x0, symName: __ZNSt3__19make_pairB8ue170006INS_16reverse_iteratorIPiEES3_EENS_4pairINS_18__unwrap_ref_decayIT_E4typeENS5_IT0_E4typeEEEOS6_OS9_, symObjAddr: 0x3574, symBinAddr: 0x1000065BC, symSize: 0x38 }
  - { offsetInCU: 0xAD0B, offset: 0xAD0B, size: 0x8, addend: 0x0, symName: __ZNSt3__114__rewrap_rangeB8ue170006INS_16reverse_iteratorIPiEES3_EET_S4_T0_, symObjAddr: 0x35AC, symBinAddr: 0x1000065F4, symSize: 0x5C }
  - { offsetInCU: 0xAD57, offset: 0xAD57, size: 0x8, addend: 0x0, symName: __ZNSt3__113__rewrap_iterB8ue170006INS_16reverse_iteratorIPiEES3_NS_18__unwrap_iter_implIS3_Lb0EEEEET_S6_T0_, symObjAddr: 0x3608, symBinAddr: 0x100006650, symSize: 0x74 }
  - { offsetInCU: 0xADAC, offset: 0xADAC, size: 0x8, addend: 0x0, symName: __ZNSt3__1neB8ue170006IPiS1_EEbRKNS_16reverse_iteratorIT_EERKNS2_IT0_EE, symObjAddr: 0x367C, symBinAddr: 0x1000066C4, symSize: 0x48 }
  - { offsetInCU: 0xAF78, offset: 0xAF78, size: 0x8, addend: 0x0, symName: __ZNSt3__14sortB8ue170006INS_11__wrap_iterIPiEENS_6__lessIvvEEEEvT_S6_T0_, symObjAddr: 0x3A90, symBinAddr: 0x100006AD8, symSize: 0x40 }
  - { offsetInCU: 0xAFD2, offset: 0xAFD2, size: 0x8, addend: 0x0, symName: __ZNSt3__111__sort_implB8ue170006INS_17_ClassicAlgPolicyENS_11__wrap_iterIPiEENS_6__lessIvvEEEEvT0_S7_RT1_, symObjAddr: 0x3AD0, symBinAddr: 0x100006B18, symSize: 0xA8 }
  - { offsetInCU: 0xB035, offset: 0xB035, size: 0x8, addend: 0x0, symName: __ZNSt3__123__debug_randomize_rangeB8ue170006INS_17_ClassicAlgPolicyENS_11__wrap_iterIPiEES4_EEvT0_T1_, symObjAddr: 0x3B78, symBinAddr: 0x100006BC0, symSize: 0x14 }
  - { offsetInCU: 0xB086, offset: 0xB086, size: 0x8, addend: 0x0, symName: __ZNSt3__115__sort_dispatchB8ue170006INS_17_ClassicAlgPolicyEiLi0EEEvPT0_S3_RNS_6__lessIvvEE, symObjAddr: 0x3B8C, symBinAddr: 0x100006BD4, symSize: 0x34 }
  - { offsetInCU: 0xB0F1, offset: 0xB0F1, size: 0x8, addend: 0x0, symName: __ZNSt3__113__unwrap_iterB8ue170006INS_11__wrap_iterIPiEENS_18__unwrap_iter_implIS3_Lb1EEELi0EEEDTclsrT0_8__unwrapclsr3stdE7declvalIT_EEEES7_, symObjAddr: 0x3BC0, symBinAddr: 0x100006C08, symSize: 0x2C }
  - { offsetInCU: 0xB135, offset: 0xB135, size: 0x8, addend: 0x0, symName: __ZNSt3__135__check_strict_weak_ordering_sortedB8ue170006IPiNS_6__lessIvvEEEEvT_S4_RT0_, symObjAddr: 0x3BEC, symBinAddr: 0x100006C34, symSize: 0x18 }
  - { offsetInCU: 0xB1DE, offset: 0xB1DE, size: 0x8, addend: 0x0, symName: __ZNSt3__112__to_addressB8ue170006INS_11__wrap_iterIPiEEvEEu7__decayIDTclsr19__to_address_helperIT_EE6__callclsr3stdE7declvalIRKS4_EEEEES6_, symObjAddr: 0x3C2C, symBinAddr: 0x100006C74, symSize: 0x24 }
  - { offsetInCU: 0xB2B9, offset: 0xB2B9, size: 0x8, addend: 0x0, symName: __ZNSt3__1neB8ue170006ERKNS_16__deque_iteratorIiPiRiPS1_lLl1024EEES6_, symObjAddr: 0x49B0, symBinAddr: 0x1000079F8, symSize: 0x34 }
  - { offsetInCU: 0xB2F6, offset: 0xB2F6, size: 0x8, addend: 0x0, symName: __ZNSt3__1eqB8ue170006ERKNS_16__deque_iteratorIiPiRiPS1_lLl1024EEES6_, symObjAddr: 0x4AC0, symBinAddr: 0x100007B08, symSize: 0x30 }
  - { offsetInCU: 0xB333, offset: 0xB333, size: 0x8, addend: 0x0, symName: __ZNSt3__112__to_addressB8ue170006IPiEEPT_S3_, symObjAddr: 0x4EB0, symBinAddr: 0x100007EF8, symSize: 0x14 }
  - { offsetInCU: 0xB70D, offset: 0xB70D, size: 0x8, addend: 0x0, symName: __ZNSt3__14swapB8ue170006IPPiEENS_9enable_ifIXaasr21is_move_constructibleIT_EE5valuesr18is_move_assignableIS4_EE5valueEvE4typeERS4_S7_, symObjAddr: 0x61B0, symBinAddr: 0x1000091F8, symSize: 0x3C }
  - { offsetInCU: 0xB75E, offset: 0xB75E, size: 0x8, addend: 0x0, symName: __ZNSt3__14moveB8ue170006IPPiS2_EET0_T_S4_S3_, symObjAddr: 0x6294, symBinAddr: 0x1000092DC, symSize: 0x40 }
  - { offsetInCU: 0xB7B8, offset: 0xB7B8, size: 0x8, addend: 0x0, symName: __ZNSt3__16__moveB8ue170006INS_17_ClassicAlgPolicyEPPiS3_S3_EENS_4pairIT0_T2_EES5_T1_S6_, symObjAddr: 0x639C, symBinAddr: 0x1000093E4, symSize: 0x44 }
  - { offsetInCU: 0xB824, offset: 0xB824, size: 0x8, addend: 0x0, symName: __ZNSt3__123__dispatch_copy_or_moveB8ue170006INS_17_ClassicAlgPolicyENS_11__move_loopIS1_EENS_14__move_trivialEPPiS6_S6_EENS_4pairIT2_T4_EES8_T3_S9_, symObjAddr: 0x63E0, symBinAddr: 0x100009428, symSize: 0x44 }
  - { offsetInCU: 0xB8A2, offset: 0xB8A2, size: 0x8, addend: 0x0, symName: __ZNSt3__121__unwrap_and_dispatchB8ue170006INS_10__overloadINS_11__move_loopINS_17_ClassicAlgPolicyEEENS_14__move_trivialEEEPPiS8_S8_Li0EEENS_4pairIT0_T2_EESA_T1_SB_, symObjAddr: 0x6424, symBinAddr: 0x10000946C, symSize: 0xB4 }
  - { offsetInCU: 0xB930, offset: 0xB930, size: 0x8, addend: 0x0, symName: __ZNSt3__114__unwrap_rangeB8ue170006IPPiS2_EENS_4pairIT0_S4_EET_S6_, symObjAddr: 0x64D8, symBinAddr: 0x100009520, symSize: 0x60 }
  - { offsetInCU: 0xBAF4, offset: 0xBAF4, size: 0x8, addend: 0x0, symName: __ZNSt3__113__unwrap_iterB8ue170006IPPiNS_18__unwrap_iter_implIS2_Lb1EEELi0EEEDTclsrT0_8__unwrapclsr3stdE7declvalIT_EEEES6_, symObjAddr: 0x6580, symBinAddr: 0x1000095C8, symSize: 0x24 }
  - { offsetInCU: 0xBB38, offset: 0xBB38, size: 0x8, addend: 0x0, symName: __ZNSt3__19make_pairB8ue170006IPPiS2_EENS_4pairINS_18__unwrap_ref_decayIT_E4typeENS4_IT0_E4typeEEEOS5_OS8_, symObjAddr: 0x65A4, symBinAddr: 0x1000095EC, symSize: 0x38 }
  - { offsetInCU: 0xBB87, offset: 0xBB87, size: 0x8, addend: 0x0, symName: __ZNSt3__114__rewrap_rangeB8ue170006IPPiS2_EET_S3_T0_, symObjAddr: 0x65DC, symBinAddr: 0x100009624, symSize: 0x2C }
  - { offsetInCU: 0xBBD3, offset: 0xBBD3, size: 0x8, addend: 0x0, symName: __ZNSt3__113__rewrap_iterB8ue170006IPPiS2_NS_18__unwrap_iter_implIS2_Lb1EEEEET_S5_T0_, symObjAddr: 0x6608, symBinAddr: 0x100009650, symSize: 0x3C }
  - { offsetInCU: 0xBC28, offset: 0xBC28, size: 0x8, addend: 0x0, symName: __ZNSt3__119__copy_trivial_implB8ue170006IPiS1_EENS_4pairIPT_PT0_EES4_S4_S6_, symObjAddr: 0x6644, symBinAddr: 0x10000968C, symSize: 0x80 }
  - { offsetInCU: 0xBC90, offset: 0xBC90, size: 0x8, addend: 0x0, symName: __ZNSt3__119__constexpr_memmoveB8ue170006IPiS1_Li0EEEPT_S3_PT0_NS_15__element_countE, symObjAddr: 0x66C4, symBinAddr: 0x10000970C, symSize: 0x64 }
  - { offsetInCU: 0xBCFE, offset: 0xBCFE, size: 0x8, addend: 0x0, symName: __ZNSt3__19make_pairB8ue170006IRPPiS2_EENS_4pairINS_18__unwrap_ref_decayIT_E4typeENS5_IT0_E4typeEEEOS6_OS9_, symObjAddr: 0x6728, symBinAddr: 0x100009770, symSize: 0x38 }
  - { offsetInCU: 0xBDA0, offset: 0xBDA0, size: 0x8, addend: 0x0, symName: __ZNSt3__18distanceB8ue170006INS_13move_iteratorIPPiEEEENS_15iterator_traitsIT_E15difference_typeES6_S6_, symObjAddr: 0x6990, symBinAddr: 0x1000099D8, symSize: 0x3C }
  - { offsetInCU: 0xBDE3, offset: 0xBDE3, size: 0x8, addend: 0x0, symName: __ZNSt3__110__distanceB8ue170006INS_13move_iteratorIPPiEEEENS_15iterator_traitsIT_E15difference_typeES6_S6_NS_26random_access_iterator_tagE, symObjAddr: 0x6B94, symBinAddr: 0x100009BDC, symSize: 0x30 }
  - { offsetInCU: 0xBE30, offset: 0xBE30, size: 0x8, addend: 0x0, symName: __ZNSt3__1miB8ue170006IPPiS2_EEDTmicldtfp_4baseEcldtfp0_4baseEERKNS_13move_iteratorIT_EERKNS4_IT0_EE, symObjAddr: 0x6BC4, symBinAddr: 0x100009C0C, symSize: 0x48 }
  - { offsetInCU: 0xBE7F, offset: 0xBE7F, size: 0x8, addend: 0x0, symName: __ZNSt3__113move_backwardB8ue170006IPPiS2_EET0_T_S4_S3_, symObjAddr: 0x6C6C, symBinAddr: 0x100009CB4, symSize: 0x40 }
  - { offsetInCU: 0xBED9, offset: 0xBED9, size: 0x8, addend: 0x0, symName: __ZNSt3__115__move_backwardB8ue170006INS_17_ClassicAlgPolicyEPPiS3_S3_EENS_4pairIT0_T2_EES5_T1_S6_, symObjAddr: 0x6CAC, symBinAddr: 0x100009CF4, symSize: 0x44 }
  - { offsetInCU: 0xBF45, offset: 0xBF45, size: 0x8, addend: 0x0, symName: __ZNSt3__123__dispatch_copy_or_moveB8ue170006INS_17_ClassicAlgPolicyENS_20__move_backward_loopIS1_EENS_23__move_backward_trivialEPPiS6_S6_EENS_4pairIT2_T4_EES8_T3_S9_, symObjAddr: 0x6CF0, symBinAddr: 0x100009D38, symSize: 0x44 }
  - { offsetInCU: 0xBFC3, offset: 0xBFC3, size: 0x8, addend: 0x0, symName: __ZNSt3__121__unwrap_and_dispatchB8ue170006INS_10__overloadINS_20__move_backward_loopINS_17_ClassicAlgPolicyEEENS_23__move_backward_trivialEEEPPiS8_S8_Li0EEENS_4pairIT0_T2_EESA_T1_SB_, symObjAddr: 0x6D34, symBinAddr: 0x100009D7C, symSize: 0xB4 }
  - { offsetInCU: 0xC097, offset: 0xC097, size: 0x8, addend: 0x0, symName: __ZNSt3__128__copy_backward_trivial_implB8ue170006IPiS1_EENS_4pairIPT_PT0_EES4_S4_S6_, symObjAddr: 0x6E30, symBinAddr: 0x100009E78, symSize: 0x90 }
  - { offsetInCU: 0xC0FF, offset: 0xC0FF, size: 0x8, addend: 0x0, symName: __ZNSt3__19make_pairB8ue170006IRPPiS3_EENS_4pairINS_18__unwrap_ref_decayIT_E4typeENS5_IT0_E4typeEEEOS6_OS9_, symObjAddr: 0x6EC0, symBinAddr: 0x100009F08, symSize: 0x38 }
  - { offsetInCU: 0xC14E, offset: 0xC14E, size: 0x8, addend: 0x0, symName: __ZNSt3__119__allocate_at_leastB8ue170006INS_9allocatorIPiEEEENS_19__allocation_resultINS_16allocator_traitsIT_E7pointerEEERS6_m, symObjAddr: 0x7078, symBinAddr: 0x10000A0C0, symSize: 0x40 }
  - { offsetInCU: 0xC191, offset: 0xC191, size: 0x8, addend: 0x0, symName: __ZNSt3__14sortB8ue170006INS_16__deque_iteratorIiPiRiPS2_lLl1024EEENS_6__lessIvvEEEEvT_S8_T0_, symObjAddr: 0x7728, symBinAddr: 0x10000A770, symSize: 0x50 }
  - { offsetInCU: 0xC1EB, offset: 0xC1EB, size: 0x8, addend: 0x0, symName: __ZNSt3__111__sort_implB8ue170006INS_17_ClassicAlgPolicyENS_16__deque_iteratorIiPiRiPS3_lLl1024EEENS_6__lessIvvEEEEvT0_S9_RT1_, symObjAddr: 0x7778, symBinAddr: 0x10000A7C0, symSize: 0xF0 }
  - { offsetInCU: 0xC24E, offset: 0xC24E, size: 0x8, addend: 0x0, symName: __ZNSt3__123__debug_randomize_rangeB8ue170006INS_17_ClassicAlgPolicyENS_16__deque_iteratorIiPiRiPS3_lLl1024EEES6_EEvT0_T1_, symObjAddr: 0x7868, symBinAddr: 0x10000A8B0, symSize: 0x1C }
  - { offsetInCU: 0xC29F, offset: 0xC29F, size: 0x8, addend: 0x0, symName: __ZNSt3__115__sort_dispatchB8ue170006INS_17_ClassicAlgPolicyENS_16__deque_iteratorIiPiRiPS3_lLl1024EEENS_6__lessIvvEEEEvT0_S9_RT1_, symObjAddr: 0x7884, symBinAddr: 0x10000A8CC, symSize: 0x80 }
  - { offsetInCU: 0xC31D, offset: 0xC31D, size: 0x8, addend: 0x0, symName: __ZNSt3__113__unwrap_iterB8ue170006INS_16__deque_iteratorIiPiRiPS2_lLl1024EEENS_18__unwrap_iter_implIS5_Lb0EEELi0EEEDTclsrT0_8__unwrapclsr3stdE7declvalIT_EEEES9_, symObjAddr: 0x7904, symBinAddr: 0x10000A94C, symSize: 0x44 }
  - { offsetInCU: 0xC361, offset: 0xC361, size: 0x8, addend: 0x0, symName: __ZNSt3__135__check_strict_weak_ordering_sortedB8ue170006INS_16__deque_iteratorIiPiRiPS2_lLl1024EEENS_6__lessIvvEEEEvT_S8_RT0_, symObjAddr: 0x7948, symBinAddr: 0x10000A990, symSize: 0x20 }
  - { offsetInCU: 0xC3B7, offset: 0xC3B7, size: 0x8, addend: 0x0, symName: __ZNSt3__17__log2iB8ue170006IlEET_S1_, symObjAddr: 0x7968, symBinAddr: 0x10000A9B0, symSize: 0x54 }
  - { offsetInCU: 0xC3EE, offset: 0xC3EE, size: 0x8, addend: 0x0, symName: __ZNSt3__1miB8ue170006ERKNS_16__deque_iteratorIiPiRiPS1_lLl1024EEES6_, symObjAddr: 0x79BC, symBinAddr: 0x10000AA04, symSize: 0xA8 }
  - { offsetInCU: 0xC42B, offset: 0xC42B, size: 0x8, addend: 0x0, symName: __ZNSt3__112__libcpp_clzB8ue170006Em, symObjAddr: 0x8240, symBinAddr: 0x10000B288, symSize: 0x1C }
  - { offsetInCU: 0xC457, offset: 0xC457, size: 0x8, addend: 0x0, symName: __ZNSt3__124__sort3_maybe_branchlessB8ue170006INS_17_ClassicAlgPolicyERNS_6__lessIvvEENS_16__deque_iteratorIiPiRiPS6_lLl1024EEEEENS_9enable_ifIXntsr21__use_branchless_sortIT0_T1_EE5valueEvE4typeESC_SC_SC_SB_, symObjAddr: 0x8344, symBinAddr: 0x10000B38C, symSize: 0x6C }
  - { offsetInCU: 0xC4C8, offset: 0xC4C8, size: 0x8, addend: 0x0, symName: __ZNSt3__124__sort4_maybe_branchlessB8ue170006INS_17_ClassicAlgPolicyERNS_6__lessIvvEENS_16__deque_iteratorIiPiRiPS6_lLl1024EEEEENS_9enable_ifIXntsr21__use_branchless_sortIT0_T1_EE5valueEvE4typeESC_SC_SC_SC_SB_, symObjAddr: 0x83B0, symBinAddr: 0x10000B3F8, symSize: 0x90 }
  - { offsetInCU: 0xC548, offset: 0xC548, size: 0x8, addend: 0x0, symName: __ZNSt3__124__sort5_maybe_branchlessB8ue170006INS_17_ClassicAlgPolicyERNS_6__lessIvvEENS_16__deque_iteratorIiPiRiPS6_lLl1024EEEEENS_9enable_ifIXntsr21__use_branchless_sortIT0_T1_EE5valueEvE4typeESC_SC_SC_SC_SC_SB_, symObjAddr: 0x8440, symBinAddr: 0x10000B488, symSize: 0xB8 }
  - { offsetInCU: 0xC5D7, offset: 0xC5D7, size: 0x8, addend: 0x0, symName: __ZNSt3__116__insertion_sortB8ue170006INS_17_ClassicAlgPolicyERNS_6__lessIvvEENS_16__deque_iteratorIiPiRiPS6_lLl1024EEEEEvT1_SA_T0_, symObjAddr: 0x84F8, symBinAddr: 0x10000B540, symSize: 0x194 }
  - { offsetInCU: 0xC69D, offset: 0xC69D, size: 0x8, addend: 0x0, symName: __ZNSt3__114__partial_sortB8ue170006INS_17_ClassicAlgPolicyERNS_6__lessIvvEENS_16__deque_iteratorIiPiRiPS6_lLl1024EEES9_EET1_SA_SA_T2_RT0_, symObjAddr: 0x8828, symBinAddr: 0x10000B870, symSize: 0x110 }
  - { offsetInCU: 0xC726, offset: 0xC726, size: 0x8, addend: 0x0, symName: __ZNSt3__17__sort3B8ue170006INS_17_ClassicAlgPolicyERNS_6__lessIvvEENS_16__deque_iteratorIiPiRiPS6_lLl1024EEEEEjT1_SA_SA_T0_, symObjAddr: 0x8938, symBinAddr: 0x10000B980, symSize: 0x1F4 }
  - { offsetInCU: 0xC7A6, offset: 0xC7A6, size: 0x8, addend: 0x0, symName: __ZNSt3__19iter_swapB8ue170006INS_16__deque_iteratorIiPiRiPS2_lLl1024EEES5_EEvT_T0_, symObjAddr: 0x9940, symBinAddr: 0x10000C988, symSize: 0x58 }
  - { offsetInCU: 0xC7EE, offset: 0xC7EE, size: 0x8, addend: 0x0, symName: __ZNSt3__14swapB8ue170006IiEENS_9enable_ifIXaasr21is_move_constructibleIT_EE5valuesr18is_move_assignableIS2_EE5valueEvE4typeERS2_S5_, symObjAddr: 0x9998, symBinAddr: 0x10000C9E0, symSize: 0x3C }
  - { offsetInCU: 0xC83F, offset: 0xC83F, size: 0x8, addend: 0x0, symName: __ZNSt3__17__sort4B8ue170006INS_17_ClassicAlgPolicyERNS_6__lessIvvEENS_16__deque_iteratorIiPiRiPS6_lLl1024EEEEEvT1_SA_SA_SA_T0_, symObjAddr: 0x99D4, symBinAddr: 0x10000CA1C, symSize: 0x160 }
  - { offsetInCU: 0xC8BB, offset: 0xC8BB, size: 0x8, addend: 0x0, symName: __ZNSt3__17__sort5B8ue170006INS_17_ClassicAlgPolicyERNS_6__lessIvvEENS_16__deque_iteratorIiPiRiPS6_lLl1024EEEEEvT1_SA_SA_SA_SA_T0_, symObjAddr: 0x9B34, symBinAddr: 0x10000CB7C, symSize: 0x1D8 }
  - { offsetInCU: 0xC947, offset: 0xC947, size: 0x8, addend: 0x0, symName: __ZNSt3__119__partial_sort_implB8ue170006INS_17_ClassicAlgPolicyERNS_6__lessIvvEENS_16__deque_iteratorIiPiRiPS6_lLl1024EEES9_EET1_SA_SA_T2_OT0_, symObjAddr: 0x9D64, symBinAddr: 0x10000CDAC, symSize: 0x1A0 }
  - { offsetInCU: 0xC9E0, offset: 0xC9E0, size: 0x8, addend: 0x0, symName: __ZNSt3__111__make_heapB8ue170006INS_17_ClassicAlgPolicyERNS_6__lessIvvEENS_16__deque_iteratorIiPiRiPS6_lLl1024EEEEEvT1_SA_OT0_, symObjAddr: 0x9F04, symBinAddr: 0x10000CF4C, symSize: 0xE8 }
  - { offsetInCU: 0xCA82, offset: 0xCA82, size: 0x8, addend: 0x0, symName: __ZNSt3__111__sort_heapB8ue170006INS_17_ClassicAlgPolicyERNS_6__lessIvvEENS_16__deque_iteratorIiPiRiPS6_lLl1024EEEEEvT1_SA_OT0_, symObjAddr: 0xA2E8, symBinAddr: 0x10000D330, symSize: 0xD8 }
  - { offsetInCU: 0xCB26, offset: 0xCB26, size: 0x8, addend: 0x0, symName: __ZNSt3__110__pop_heapB8ue170006INS_17_ClassicAlgPolicyENS_6__lessIvvEENS_16__deque_iteratorIiPiRiPS5_lLl1024EEEEEvT1_S9_RT0_NS_15iterator_traitsIS9_E15difference_typeE, symObjAddr: 0xA3C0, symBinAddr: 0x10000D408, symSize: 0x15C }
  - { offsetInCU: 0xCBD7, offset: 0xCBD7, size: 0x8, addend: 0x0, symName: __ZNSt3__19__sift_upB8ue170006INS_17_ClassicAlgPolicyERNS_6__lessIvvEENS_16__deque_iteratorIiPiRiPS6_lLl1024EEEEEvT1_SA_OT0_NS_15iterator_traitsISA_E15difference_typeE, symObjAddr: 0xA674, symBinAddr: 0x10000D6BC, symSize: 0x178 }
  - { offsetInCU: 0xCC88, offset: 0xCC88, size: 0x8, addend: 0x0, symName: __ZNSt3__1ltB8ue170006ERKNS_16__deque_iteratorIiPiRiPS1_lLl1024EEES6_, symObjAddr: 0xA8FC, symBinAddr: 0x10000D944, symSize: 0x98 }
  - { offsetInCU: 0xCCC5, offset: 0xCCC5, size: 0x8, addend: 0x0, symName: __ZNSt3__1geB8ue170006ERKNS_16__deque_iteratorIiPiRiPS1_lLl1024EEES6_, symObjAddr: 0xA994, symBinAddr: 0x10000D9DC, symSize: 0x34 }
  - { offsetInCU: 0xCD02, offset: 0xCD02, size: 0x8, addend: 0x0, symName: __ZNSt3__122__populate_left_bitsetB8ue170006IRNS_6__lessIvvEENS_16__deque_iteratorIiPiRiPS5_lLl1024EEEiEEvT0_T_RT1_Ry, symObjAddr: 0xA9C8, symBinAddr: 0x10000DA10, symSize: 0xC0 }
  - { offsetInCU: 0xCDBD, offset: 0xCDBD, size: 0x8, addend: 0x0, symName: __ZNSt3__123__populate_right_bitsetB8ue170006IRNS_6__lessIvvEENS_16__deque_iteratorIiPiRiPS5_lLl1024EEEiEEvT0_T_RT1_Ry, symObjAddr: 0xAA88, symBinAddr: 0x10000DAD0, symSize: 0xB8 }
  - { offsetInCU: 0xCE78, offset: 0xCE78, size: 0x8, addend: 0x0, symName: __ZNSt3__117__swap_bitmap_posB8ue170006INS_17_ClassicAlgPolicyENS_16__deque_iteratorIiPiRiPS3_lLl1024EEEEEvT0_S7_RyS8_, symObjAddr: 0xAB40, symBinAddr: 0x10000DB88, symSize: 0x118 }
  - { offsetInCU: 0xCF19, offset: 0xCF19, size: 0x8, addend: 0x0, symName: __ZNSt3__133__bitset_partition_partial_blocksB8ue170006INS_17_ClassicAlgPolicyERNS_6__lessIvvEENS_16__deque_iteratorIiPiRiPS6_lLl1024EEEiEEvRT1_SB_T0_RT2_RySF_, symObjAddr: 0xAC8C, symBinAddr: 0x10000DCD4, symSize: 0x300 }
  - { offsetInCU: 0xD0A0, offset: 0xD0A0, size: 0x8, addend: 0x0, symName: __ZNSt3__19make_pairB8ue170006IRNS_16__deque_iteratorIiPiRiPS2_lLl1024EEERbEENS_4pairINS_18__unwrap_ref_decayIT_E4typeENS9_IT0_E4typeEEEOSA_OSD_, symObjAddr: 0xB158, symBinAddr: 0x10000E1A0, symSize: 0x38 }
  - { offsetInCU: 0xD0EF, offset: 0xD0EF, size: 0x8, addend: 0x0, symName: __ZNSt3__112__libcpp_ctzB8ue170006Ey, symObjAddr: 0xB190, symBinAddr: 0x10000E1D8, symSize: 0x20 }
  - { offsetInCU: 0xD11B, offset: 0xD11B, size: 0x8, addend: 0x0, symName: __ZNSt3__113__libcpp_blsrB8ue170006Ey, symObjAddr: 0xB1B0, symBinAddr: 0x10000E1F8, symSize: 0x2C }
  - { offsetInCU: 0xD147, offset: 0xD147, size: 0x8, addend: 0x0, symName: __ZNSt3__112__libcpp_clzB8ue170006Ey, symObjAddr: 0xB228, symBinAddr: 0x10000E270, symSize: 0x1C }
  - { offsetInCU: 0xD28F, offset: 0xD28F, size: 0x8, addend: 0x0, symName: __ZNSt3__18distanceB8ue170006IPKiEENS_15iterator_traitsIT_E15difference_typeES4_S4_, symObjAddr: 0xB62C, symBinAddr: 0x10000E674, symSize: 0x2C }
  - { offsetInCU: 0xD2D2, offset: 0xD2D2, size: 0x8, addend: 0x0, symName: __ZNSt3__1neB8ue170006ERKNS_5dequeIiNS_9allocatorIiEEE13__deque_rangeES6_, symObjAddr: 0xBD54, symBinAddr: 0x10000ED9C, symSize: 0x34 }
  - { offsetInCU: 0xD30F, offset: 0xD30F, size: 0x8, addend: 0x0, symName: __ZNSt3__1eqB8ue170006ERKNS_5dequeIiNS_9allocatorIiEEE13__deque_rangeES6_, symObjAddr: 0xC1F0, symBinAddr: 0x10000F238, symSize: 0x30 }
  - { offsetInCU: 0xD34C, offset: 0xD34C, size: 0x8, addend: 0x0, symName: __ZNSt3__110__distanceB8ue170006IPKiEENS_15iterator_traitsIT_E15difference_typeES4_S4_NS_26random_access_iterator_tagE, symObjAddr: 0xC32C, symBinAddr: 0x10000F374, symSize: 0x28 }
  - { offsetInCU: 0xD7BA, offset: 0xD7BA, size: 0x8, addend: 0x0, symName: __ZSt28__throw_bad_array_new_lengthB8ue170006v, symObjAddr: 0x2EAC, symBinAddr: 0x100005EF4, symSize: 0x34 }
  - { offsetInCU: 0xDDE4, offset: 0xDDE4, size: 0x8, addend: 0x0, symName: __ZNKSt3__16chrono15__duration_castINS0_8durationIxNS_5ratioILl1ELl1000000000EEEEENS2_IxNS3_ILl1ELl1000EEEEENS3_ILl1ELl1000000EEELb1ELb0EEclB8ue170006ERKS5_, symObjAddr: 0x1B3C, symBinAddr: 0x100004B84, symSize: 0x4C }
  - { offsetInCU: 0xDF95, offset: 0xDF95, size: 0x8, addend: 0x0, symName: __ZNSt3__16vectorIiNS_9allocatorIiEEE26__swap_out_circular_bufferERNS_14__split_bufferIiRS2_EE, symObjAddr: 0x27C8, symBinAddr: 0x100005810, symSize: 0x110 }
  - { offsetInCU: 0x103E3, offset: 0x103E3, size: 0x8, addend: 0x0, symName: _main, symObjAddr: 0x0, symBinAddr: 0x100003048, symSize: 0x41C }
  - { offsetInCU: 0x104E7, offset: 0x104E7, size: 0x8, addend: 0x0, symName: __ZNSt3__112basic_stringIcNS_11char_traitsIcEENS_9allocatorIcEEEC1B8ue170006ILi0EEEPKc, symObjAddr: 0x41C, symBinAddr: 0x100003464, symSize: 0x34 }
  - { offsetInCU: 0x10591, offset: 0x10591, size: 0x8, addend: 0x0, symName: __ZN11LogDurationC1ERKNSt3__112basic_stringIcNS0_11char_traitsIcEENS0_9allocatorIcEEEE, symObjAddr: 0x450, symBinAddr: 0x100003498, symSize: 0x34 }
  - { offsetInCU: 0x105C9, offset: 0x105C9, size: 0x8, addend: 0x0, symName: __ZNSt3__16vectorIiNS_9allocatorIiEEEC1B8ue170006Ev, symObjAddr: 0x484, symBinAddr: 0x1000034CC, symSize: 0x2C }
  - { offsetInCU: 0x105F3, offset: 0x105F3, size: 0x8, addend: 0x0, symName: __ZNSt3__16vectorIiNS_9allocatorIiEEE9push_backB8ue170006ERKi, symObjAddr: 0x4B0, symBinAddr: 0x1000034F8, symSize: 0x6C }
  - { offsetInCU: 0x1062A, offset: 0x1062A, size: 0x8, addend: 0x0, symName: __ZNSt3__16vectorIiNS_9allocatorIiEEE5beginB8ue170006Ev, symObjAddr: 0x558, symBinAddr: 0x1000035A0, symSize: 0x30 }
  - { offsetInCU: 0x10652, offset: 0x10652, size: 0x8, addend: 0x0, symName: __ZNSt3__16vectorIiNS_9allocatorIiEEE3endB8ue170006Ev, symObjAddr: 0x588, symBinAddr: 0x1000035D0, symSize: 0x30 }
  - { offsetInCU: 0x1067A, offset: 0x1067A, size: 0x8, addend: 0x0, symName: __ZNSt3__16vectorIiNS_9allocatorIiEEED1B8ue170006Ev, symObjAddr: 0x5B8, symBinAddr: 0x100003600, symSize: 0x2C }
  - { offsetInCU: 0x106A4, offset: 0x106A4, size: 0x8, addend: 0x0, symName: __ZN11LogDurationD1Ev, symObjAddr: 0x5E4, symBinAddr: 0x10000362C, symSize: 0x2C }
  - { offsetInCU: 0x106CE, offset: 0x106CE, size: 0x8, addend: 0x0, symName: __ZNSt3__113basic_ostreamIcNS_11char_traitsIcEEElsB8ue170006EPFRS3_S4_E, symObjAddr: 0x610, symBinAddr: 0x100003658, symSize: 0x2C }
  - { offsetInCU: 0x10702, offset: 0x10702, size: 0x8, addend: 0x0, symName: __ZNSt3__15dequeIiNS_9allocatorIiEEEC1B8ue170006Ev, symObjAddr: 0x694, symBinAddr: 0x1000036DC, symSize: 0x2C }
  - { offsetInCU: 0x1072C, offset: 0x1072C, size: 0x8, addend: 0x0, symName: __ZNSt3__15dequeIiNS_9allocatorIiEEE9push_backERKi, symObjAddr: 0x6C0, symBinAddr: 0x100003708, symSize: 0xAC }
  - { offsetInCU: 0x10772, offset: 0x10772, size: 0x8, addend: 0x0, symName: __ZNSt3__15dequeIiNS_9allocatorIiEEE5beginB8ue170006Ev, symObjAddr: 0x7B8, symBinAddr: 0x100003800, symSize: 0xB8 }
  - { offsetInCU: 0x107A7, offset: 0x107A7, size: 0x8, addend: 0x0, symName: __ZNSt3__15dequeIiNS_9allocatorIiEEE3endB8ue170006Ev, symObjAddr: 0x870, symBinAddr: 0x1000038B8, symSize: 0xBC }
  - { offsetInCU: 0x107EB, offset: 0x107EB, size: 0x8, addend: 0x0, symName: __ZNSt3__15dequeIiNS_9allocatorIiEEED1B8ue170006Ev, symObjAddr: 0x92C, symBinAddr: 0x100003974, symSize: 0x2C }
  - { offsetInCU: 0x10815, offset: 0x10815, size: 0x8, addend: 0x0, symName: __ZNSt3__15dequeIiNS_9allocatorIiEEEC1ESt16initializer_listIiE, symObjAddr: 0x958, symBinAddr: 0x1000039A0, symSize: 0x3C }
  - { offsetInCU: 0x10850, offset: 0x10850, size: 0x8, addend: 0x0, symName: __ZNKSt3__116__deque_iteratorIiPiRiPS1_lLl1024EEdeB8ue170006Ev, symObjAddr: 0x994, symBinAddr: 0x1000039DC, symSize: 0x18 }
  - { offsetInCU: 0x10876, offset: 0x10876, size: 0x8, addend: 0x0, symName: __ZNKSt3__116__deque_iteratorIiPiRiPS1_lLl1024EEplB8ue170006El, symObjAddr: 0x9F4, symBinAddr: 0x100003A3C, symSize: 0x40 }
  - { offsetInCU: 0x108BA, offset: 0x108BA, size: 0x8, addend: 0x0, symName: __ZNKSt3__15dequeIiNS_9allocatorIiEEE4sizeB8ue170006Ev, symObjAddr: 0xA34, symBinAddr: 0x100003A7C, symSize: 0x28 }
  - { offsetInCU: 0x108E0, offset: 0x108E0, size: 0x8, addend: 0x0, symName: __ZNKSt3__116__deque_iteratorIiPiRiPS1_lLl1024EEmiB8ue170006El, symObjAddr: 0xA5C, symBinAddr: 0x100003AA4, symSize: 0x40 }
  - { offsetInCU: 0x10924, offset: 0x10924, size: 0x8, addend: 0x0, symName: __ZN11LogDurationC2ERKNSt3__112basic_stringIcNS0_11char_traitsIcEENS0_9allocatorIcEEEE, symObjAddr: 0xA9C, symBinAddr: 0x100003AE4, symSize: 0x40 }
  - { offsetInCU: 0x1095C, offset: 0x1095C, size: 0x8, addend: 0x0, symName: __ZN11LogDurationD2Ev, symObjAddr: 0xADC, symBinAddr: 0x100003B24, symSize: 0x130 }
  - { offsetInCU: 0x109B8, offset: 0x109B8, size: 0x8, addend: 0x0, symName: __ZNKSt3__16chrono8durationIxNS_5ratioILl1ELl1000EEEE5countB8ue170006Ev, symObjAddr: 0xD2C, symBinAddr: 0x100003D74, symSize: 0x18 }
  - { offsetInCU: 0x109DE, offset: 0x109DE, size: 0x8, addend: 0x0, symName: __ZNKSt3__16chrono10time_pointINS0_12steady_clockENS0_8durationIxNS_5ratioILl1ELl1000000000EEEEEE16time_since_epochB8ue170006Ev, symObjAddr: 0xDB4, symBinAddr: 0x100003DFC, symSize: 0x20 }
  - { offsetInCU: 0x10A04, offset: 0x10A04, size: 0x8, addend: 0x0, symName: __ZNKSt3__16chrono8durationIxNS_5ratioILl1ELl1000000000EEEE5countB8ue170006Ev, symObjAddr: 0xDD4, symBinAddr: 0x100003E1C, symSize: 0x18 }
  - { offsetInCU: 0x10A39, offset: 0x10A39, size: 0x8, addend: 0x0, symName: __ZNSt3__16chrono8durationIxNS_5ratioILl1ELl1000000000EEEEC1B8ue170006IxEERKT_PNS_9enable_ifIXaasr14is_convertibleIS8_xEE5valueooL_ZNS_17integral_constantIbLb0EE5valueEEntsr23treat_as_floating_pointIS6_EE5valueEvE4typeE, symObjAddr: 0xDEC, symBinAddr: 0x100003E34, symSize: 0x3C }
  - { offsetInCU: 0x10A85, offset: 0x10A85, size: 0x8, addend: 0x0, symName: __ZNSt3__16chrono8durationIxNS_5ratioILl1ELl1000000000EEEEC2B8ue170006IxEERKT_PNS_9enable_ifIXaasr14is_convertibleIS8_xEE5valueooL_ZNS_17integral_constantIbLb0EE5valueEEntsr23treat_as_floating_pointIS6_EE5valueEvE4typeE, symObjAddr: 0xE28, symBinAddr: 0x100003E70, symSize: 0x28 }
  - { offsetInCU: 0x10AD1, offset: 0x10AD1, size: 0x8, addend: 0x0, symName: __ZNKSt3__112basic_stringIcNS_11char_traitsIcEENS_9allocatorIcEEE4dataB8ue170006Ev, symObjAddr: 0x103C, symBinAddr: 0x100004084, symSize: 0x28 }
  - { offsetInCU: 0x10AF7, offset: 0x10AF7, size: 0x8, addend: 0x0, symName: __ZNKSt3__112basic_stringIcNS_11char_traitsIcEENS_9allocatorIcEEE4sizeB8ue170006Ev, symObjAddr: 0x1064, symBinAddr: 0x1000040AC, symSize: 0x54 }
  - { offsetInCU: 0x10B3B, offset: 0x10B3B, size: 0x8, addend: 0x0, symName: __ZNKSt3__113basic_ostreamIcNS_11char_traitsIcEEE6sentrycvbB8ue170006Ev, symObjAddr: 0x10B8, symBinAddr: 0x100004100, symSize: 0x1C }
  - { offsetInCU: 0x10B61, offset: 0x10B61, size: 0x8, addend: 0x0, symName: __ZNSt3__119ostreambuf_iteratorIcNS_11char_traitsIcEEEC1B8ue170006ERNS_13basic_ostreamIcS2_EE, symObjAddr: 0x1314, symBinAddr: 0x10000435C, symSize: 0x34 }
  - { offsetInCU: 0x10B99, offset: 0x10B99, size: 0x8, addend: 0x0, symName: __ZNKSt3__18ios_base5flagsB8ue170006Ev, symObjAddr: 0x1348, symBinAddr: 0x100004390, symSize: 0x18 }
  - { offsetInCU: 0x10BC1, offset: 0x10BC1, size: 0x8, addend: 0x0, symName: __ZNKSt3__19basic_iosIcNS_11char_traitsIcEEE4fillB8ue170006Ev, symObjAddr: 0x1360, symBinAddr: 0x1000043A8, symSize: 0x64 }
  - { offsetInCU: 0x10BE9, offset: 0x10BE9, size: 0x8, addend: 0x0, symName: __ZNKSt3__119ostreambuf_iteratorIcNS_11char_traitsIcEEE6failedB8ue170006Ev, symObjAddr: 0x13C4, symBinAddr: 0x10000440C, symSize: 0x24 }
  - { offsetInCU: 0x10C0F, offset: 0x10C0F, size: 0x8, addend: 0x0, symName: __ZNSt3__19basic_iosIcNS_11char_traitsIcEEE8setstateB8ue170006Ej, symObjAddr: 0x13E8, symBinAddr: 0x100004430, symSize: 0x2C }
  - { offsetInCU: 0x10C44, offset: 0x10C44, size: 0x8, addend: 0x0, symName: __ZNKSt3__18ios_base5widthB8ue170006Ev, symObjAddr: 0x1414, symBinAddr: 0x10000445C, symSize: 0x18 }
  - { offsetInCU: 0x10C6C, offset: 0x10C6C, size: 0x8, addend: 0x0, symName: __ZNSt3__115basic_streambufIcNS_11char_traitsIcEEE5sputnB8ue170006EPKcl, symObjAddr: 0x142C, symBinAddr: 0x100004474, symSize: 0x3C }
  - { offsetInCU: 0x10CAE, offset: 0x10CAE, size: 0x8, addend: 0x0, symName: __ZNSt3__112basic_stringIcNS_11char_traitsIcEENS_9allocatorIcEEEC1B8ue170006Emc, symObjAddr: 0x1468, symBinAddr: 0x1000044B0, symSize: 0x3C }
  - { offsetInCU: 0x10CF6, offset: 0x10CF6, size: 0x8, addend: 0x0, symName: __ZNSt3__112basic_stringIcNS_11char_traitsIcEENS_9allocatorIcEEE4dataB8ue170006Ev, symObjAddr: 0x14A4, symBinAddr: 0x1000044EC, symSize: 0x28 }
  - { offsetInCU: 0x10D1C, offset: 0x10D1C, size: 0x8, addend: 0x0, symName: __ZNSt3__18ios_base5widthB8ue170006El, symObjAddr: 0x14CC, symBinAddr: 0x100004514, symSize: 0x2C }
  - { offsetInCU: 0x10D62, offset: 0x10D62, size: 0x8, addend: 0x0, symName: __ZNSt3__112basic_stringIcNS_11char_traitsIcEENS_9allocatorIcEEEC2B8ue170006Emc, symObjAddr: 0x14F8, symBinAddr: 0x100004540, symSize: 0x4C }
  - { offsetInCU: 0x10DAF, offset: 0x10DAF, size: 0x8, addend: 0x0, symName: __ZNSt3__117__compressed_pairINS_12basic_stringIcNS_11char_traitsIcEENS_9allocatorIcEEE5__repES5_EC1B8ue170006INS_18__default_init_tagESA_EEOT_OT0_, symObjAddr: 0x1544, symBinAddr: 0x10000458C, symSize: 0x3C }
  - { offsetInCU: 0x10E07, offset: 0x10E07, size: 0x8, addend: 0x0, symName: __ZNSt3__117__compressed_pairINS_12basic_stringIcNS_11char_traitsIcEENS_9allocatorIcEEE5__repES5_EC2B8ue170006INS_18__default_init_tagESA_EEOT_OT0_, symObjAddr: 0x1580, symBinAddr: 0x1000045C8, symSize: 0x3C }
  - { offsetInCU: 0x10E5F, offset: 0x10E5F, size: 0x8, addend: 0x0, symName: __ZNSt3__122__compressed_pair_elemINS_12basic_stringIcNS_11char_traitsIcEENS_9allocatorIcEEE5__repELi0ELb0EEC2B8ue170006ENS_18__default_init_tagE, symObjAddr: 0x15BC, symBinAddr: 0x100004604, symSize: 0x14 }
  - { offsetInCU: 0x10E93, offset: 0x10E93, size: 0x8, addend: 0x0, symName: __ZNSt3__122__compressed_pair_elemINS_9allocatorIcEELi1ELb1EEC2B8ue170006ENS_18__default_init_tagE, symObjAddr: 0x15D0, symBinAddr: 0x100004618, symSize: 0x2C }
  - { offsetInCU: 0x10EC7, offset: 0x10EC7, size: 0x8, addend: 0x0, symName: __ZNSt3__19allocatorIcEC2B8ue170006Ev, symObjAddr: 0x15FC, symBinAddr: 0x100004644, symSize: 0x2C }
  - { offsetInCU: 0x10EF1, offset: 0x10EF1, size: 0x8, addend: 0x0, symName: __ZNSt3__116__non_trivial_ifILb1ENS_9allocatorIcEEEC2B8ue170006Ev, symObjAddr: 0x1628, symBinAddr: 0x100004670, symSize: 0x14 }
  - { offsetInCU: 0x10F1B, offset: 0x10F1B, size: 0x8, addend: 0x0, symName: __ZNSt3__112basic_stringIcNS_11char_traitsIcEENS_9allocatorIcEEE13__get_pointerB8ue170006Ev, symObjAddr: 0x1650, symBinAddr: 0x100004698, symSize: 0x54 }
  - { offsetInCU: 0x10F41, offset: 0x10F41, size: 0x8, addend: 0x0, symName: __ZNKSt3__112basic_stringIcNS_11char_traitsIcEENS_9allocatorIcEEE9__is_longB8ue170006Ev, symObjAddr: 0x16A4, symBinAddr: 0x1000046EC, symSize: 0x38 }
  - { offsetInCU: 0x10F67, offset: 0x10F67, size: 0x8, addend: 0x0, symName: __ZNSt3__112basic_stringIcNS_11char_traitsIcEENS_9allocatorIcEEE18__get_long_pointerB8ue170006Ev, symObjAddr: 0x16DC, symBinAddr: 0x100004724, symSize: 0x28 }
  - { offsetInCU: 0x10F8D, offset: 0x10F8D, size: 0x8, addend: 0x0, symName: __ZNSt3__112basic_stringIcNS_11char_traitsIcEENS_9allocatorIcEEE19__get_short_pointerB8ue170006Ev, symObjAddr: 0x1704, symBinAddr: 0x10000474C, symSize: 0x28 }
  - { offsetInCU: 0x10FB3, offset: 0x10FB3, size: 0x8, addend: 0x0, symName: __ZNKSt3__117__compressed_pairINS_12basic_stringIcNS_11char_traitsIcEENS_9allocatorIcEEE5__repES5_E5firstB8ue170006Ev, symObjAddr: 0x172C, symBinAddr: 0x100004774, symSize: 0x24 }
  - { offsetInCU: 0x10FD9, offset: 0x10FD9, size: 0x8, addend: 0x0, symName: __ZNKSt3__122__compressed_pair_elemINS_12basic_stringIcNS_11char_traitsIcEENS_9allocatorIcEEE5__repELi0ELb0EE5__getB8ue170006Ev, symObjAddr: 0x1750, symBinAddr: 0x100004798, symSize: 0x14 }
  - { offsetInCU: 0x10FFF, offset: 0x10FFF, size: 0x8, addend: 0x0, symName: __ZNSt3__117__compressed_pairINS_12basic_stringIcNS_11char_traitsIcEENS_9allocatorIcEEE5__repES5_E5firstB8ue170006Ev, symObjAddr: 0x1764, symBinAddr: 0x1000047AC, symSize: 0x24 }
  - { offsetInCU: 0x11025, offset: 0x11025, size: 0x8, addend: 0x0, symName: __ZNSt3__122__compressed_pair_elemINS_12basic_stringIcNS_11char_traitsIcEENS_9allocatorIcEEE5__repELi0ELb0EE5__getB8ue170006Ev, symObjAddr: 0x1788, symBinAddr: 0x1000047D0, symSize: 0x14 }
  - { offsetInCU: 0x1104B, offset: 0x1104B, size: 0x8, addend: 0x0, symName: __ZNSt3__114pointer_traitsIPcE10pointer_toB8ue170006ERc, symObjAddr: 0x179C, symBinAddr: 0x1000047E4, symSize: 0x14 }
  - { offsetInCU: 0x1106E, offset: 0x1106E, size: 0x8, addend: 0x0, symName: __ZNSt3__119ostreambuf_iteratorIcNS_11char_traitsIcEEEC2B8ue170006ERNS_13basic_ostreamIcS2_EE, symObjAddr: 0x17B0, symBinAddr: 0x1000047F8, symSize: 0x54 }
  - { offsetInCU: 0x110A6, offset: 0x110A6, size: 0x8, addend: 0x0, symName: __ZNKSt3__19basic_iosIcNS_11char_traitsIcEEE5rdbufB8ue170006Ev, symObjAddr: 0x1804, symBinAddr: 0x10000484C, symSize: 0x24 }
  - { offsetInCU: 0x110CE, offset: 0x110CE, size: 0x8, addend: 0x0, symName: __ZNKSt3__18ios_base5rdbufB8ue170006Ev, symObjAddr: 0x1828, symBinAddr: 0x100004870, symSize: 0x18 }
  - { offsetInCU: 0x110F4, offset: 0x110F4, size: 0x8, addend: 0x0, symName: __ZNSt3__111char_traitsIcE11eq_int_typeB8ue170006Eii, symObjAddr: 0x1840, symBinAddr: 0x100004888, symSize: 0x28 }
  - { offsetInCU: 0x11127, offset: 0x11127, size: 0x8, addend: 0x0, symName: __ZNSt3__111char_traitsIcE3eofB8ue170006Ev, symObjAddr: 0x1868, symBinAddr: 0x1000048B0, symSize: 0x8 }
  - { offsetInCU: 0x1113B, offset: 0x1113B, size: 0x8, addend: 0x0, symName: __ZNKSt3__19basic_iosIcNS_11char_traitsIcEEE5widenB8ue170006Ec, symObjAddr: 0x1870, symBinAddr: 0x1000048B8, symSize: 0x84 }
  - { offsetInCU: 0x111A4, offset: 0x111A4, size: 0x8, addend: 0x0, symName: __ZNKSt3__15ctypeIcE5widenB8ue170006Ec, symObjAddr: 0x1920, symBinAddr: 0x100004968, symSize: 0x38 }
  - { offsetInCU: 0x111D9, offset: 0x111D9, size: 0x8, addend: 0x0, symName: __ZNSt3__18ios_base8setstateB8ue170006Ej, symObjAddr: 0x1958, symBinAddr: 0x1000049A0, symSize: 0x34 }
  - { offsetInCU: 0x11210, offset: 0x11210, size: 0x8, addend: 0x0, symName: __ZNKSt3__112basic_stringIcNS_11char_traitsIcEENS_9allocatorIcEEE13__get_pointerB8ue170006Ev, symObjAddr: 0x19A0, symBinAddr: 0x1000049E8, symSize: 0x54 }
  - { offsetInCU: 0x11236, offset: 0x11236, size: 0x8, addend: 0x0, symName: __ZNKSt3__112basic_stringIcNS_11char_traitsIcEENS_9allocatorIcEEE18__get_long_pointerB8ue170006Ev, symObjAddr: 0x19F4, symBinAddr: 0x100004A3C, symSize: 0x28 }
  - { offsetInCU: 0x1125C, offset: 0x1125C, size: 0x8, addend: 0x0, symName: __ZNKSt3__112basic_stringIcNS_11char_traitsIcEENS_9allocatorIcEEE19__get_short_pointerB8ue170006Ev, symObjAddr: 0x1A1C, symBinAddr: 0x100004A64, symSize: 0x28 }
  - { offsetInCU: 0x11282, offset: 0x11282, size: 0x8, addend: 0x0, symName: __ZNSt3__114pointer_traitsIPKcE10pointer_toB8ue170006ERS1_, symObjAddr: 0x1A44, symBinAddr: 0x100004A8C, symSize: 0x14 }
  - { offsetInCU: 0x112A5, offset: 0x112A5, size: 0x8, addend: 0x0, symName: __ZNKSt3__112basic_stringIcNS_11char_traitsIcEENS_9allocatorIcEEE15__get_long_sizeB8ue170006Ev, symObjAddr: 0x1A58, symBinAddr: 0x100004AA0, symSize: 0x28 }
  - { offsetInCU: 0x112CB, offset: 0x112CB, size: 0x8, addend: 0x0, symName: __ZNKSt3__112basic_stringIcNS_11char_traitsIcEENS_9allocatorIcEEE16__get_short_sizeB8ue170006Ev, symObjAddr: 0x1A80, symBinAddr: 0x100004AC8, symSize: 0x34 }
  - { offsetInCU: 0x112F1, offset: 0x112F1, size: 0x8, addend: 0x0, symName: __ZNSt3__112basic_stringIcNS_11char_traitsIcEENS_9allocatorIcEEEC1B8ue170006EPKcm, symObjAddr: 0x1AB4, symBinAddr: 0x100004AFC, symSize: 0x3C }
  - { offsetInCU: 0x11339, offset: 0x11339, size: 0x8, addend: 0x0, symName: __ZNSt3__112basic_stringIcNS_11char_traitsIcEENS_9allocatorIcEEEC2B8ue170006EPKcm, symObjAddr: 0x1AF0, symBinAddr: 0x100004B38, symSize: 0x4C }
  - { offsetInCU: 0x11381, offset: 0x11381, size: 0x8, addend: 0x0, symName: __ZNSt3__16chrono8durationIxNS_5ratioILl1ELl1000EEEEC1B8ue170006IxEERKT_PNS_9enable_ifIXaasr14is_convertibleIS8_xEE5valueooL_ZNS_17integral_constantIbLb0EE5valueEEntsr23treat_as_floating_pointIS6_EE5valueEvE4typeE, symObjAddr: 0x1B88, symBinAddr: 0x100004BD0, symSize: 0x3C }
  - { offsetInCU: 0x113CD, offset: 0x113CD, size: 0x8, addend: 0x0, symName: __ZNSt3__16chrono8durationIxNS_5ratioILl1ELl1000EEEEC2B8ue170006IxEERKT_PNS_9enable_ifIXaasr14is_convertibleIS8_xEE5valueooL_ZNS_17integral_constantIbLb0EE5valueEEntsr23treat_as_floating_pointIS6_EE5valueEvE4typeE, symObjAddr: 0x1BC4, symBinAddr: 0x100004C0C, symSize: 0x28 }
  - { offsetInCU: 0x11419, offset: 0x11419, size: 0x8, addend: 0x0, symName: __ZNSt3__112basic_stringIcNS_11char_traitsIcEENS_9allocatorIcEEEC2B8ue170006ILi0EEEPKc, symObjAddr: 0x1BEC, symBinAddr: 0x100004C34, symSize: 0x58 }
  - { offsetInCU: 0x11458, offset: 0x11458, size: 0x8, addend: 0x0, symName: __ZNSt3__111char_traitsIcE6lengthB8ue170006EPKc, symObjAddr: 0x1C44, symBinAddr: 0x100004C8C, symSize: 0x34 }
  - { offsetInCU: 0x1147B, offset: 0x1147B, size: 0x8, addend: 0x0, symName: __ZNSt3__16vectorIiNS_9allocatorIiEEEC2B8ue170006Ev, symObjAddr: 0x1C9C, symBinAddr: 0x100004CE4, symSize: 0x4C }
  - { offsetInCU: 0x114AA, offset: 0x114AA, size: 0x8, addend: 0x0, symName: __ZNSt3__117__compressed_pairIPiNS_9allocatorIiEEEC1B8ue170006IDnNS_18__default_init_tagEEEOT_OT0_, symObjAddr: 0x1CE8, symBinAddr: 0x100004D30, symSize: 0x3C }
  - { offsetInCU: 0x11502, offset: 0x11502, size: 0x8, addend: 0x0, symName: __ZNSt3__117__compressed_pairIPiNS_9allocatorIiEEEC2B8ue170006IDnNS_18__default_init_tagEEEOT_OT0_, symObjAddr: 0x1D24, symBinAddr: 0x100004D6C, symSize: 0x40 }
  - { offsetInCU: 0x1155A, offset: 0x1155A, size: 0x8, addend: 0x0, symName: __ZNSt3__122__compressed_pair_elemIPiLi0ELb0EEC2B8ue170006IDnvEEOT_, symObjAddr: 0x1D64, symBinAddr: 0x100004DAC, symSize: 0x1C }
  - { offsetInCU: 0x1159C, offset: 0x1159C, size: 0x8, addend: 0x0, symName: __ZNSt3__122__compressed_pair_elemINS_9allocatorIiEELi1ELb1EEC2B8ue170006ENS_18__default_init_tagE, symObjAddr: 0x1D80, symBinAddr: 0x100004DC8, symSize: 0x2C }
  - { offsetInCU: 0x115D0, offset: 0x115D0, size: 0x8, addend: 0x0, symName: __ZNSt3__19allocatorIiEC2B8ue170006Ev, symObjAddr: 0x1DAC, symBinAddr: 0x100004DF4, symSize: 0x2C }
  - { offsetInCU: 0x115FA, offset: 0x115FA, size: 0x8, addend: 0x0, symName: __ZNSt3__116__non_trivial_ifILb1ENS_9allocatorIiEEEC2B8ue170006Ev, symObjAddr: 0x1DD8, symBinAddr: 0x100004E20, symSize: 0x14 }
  - { offsetInCU: 0x11624, offset: 0x11624, size: 0x8, addend: 0x0, symName: __ZNSt3__16vectorIiNS_9allocatorIiEEED2B8ue170006Ev, symObjAddr: 0x1DEC, symBinAddr: 0x100004E34, symSize: 0x44 }
  - { offsetInCU: 0x1164E, offset: 0x1164E, size: 0x8, addend: 0x0, symName: __ZNSt3__16vectorIiNS_9allocatorIiEEE16__destroy_vectorC1B8ue170006ERS3_, symObjAddr: 0x1E30, symBinAddr: 0x100004E78, symSize: 0x34 }
  - { offsetInCU: 0x11687, offset: 0x11687, size: 0x8, addend: 0x0, symName: __ZNSt3__16vectorIiNS_9allocatorIiEEE16__destroy_vectorclB8ue170006Ev, symObjAddr: 0x1E64, symBinAddr: 0x100004EAC, symSize: 0x90 }
  - { offsetInCU: 0x116AD, offset: 0x116AD, size: 0x8, addend: 0x0, symName: __ZNSt3__16vectorIiNS_9allocatorIiEEE16__destroy_vectorC2B8ue170006ERS3_, symObjAddr: 0x1EF4, symBinAddr: 0x100004F3C, symSize: 0x20 }
  - { offsetInCU: 0x116E6, offset: 0x116E6, size: 0x8, addend: 0x0, symName: __ZNSt3__16vectorIiNS_9allocatorIiEEE7__clearB8ue170006Ev, symObjAddr: 0x1F14, symBinAddr: 0x100004F5C, symSize: 0x28 }
  - { offsetInCU: 0x1170C, offset: 0x1170C, size: 0x8, addend: 0x0, symName: __ZNKSt3__16vectorIiNS_9allocatorIiEEE17__annotate_deleteB8ue170006Ev, symObjAddr: 0x1F3C, symBinAddr: 0x100004F84, symSize: 0xB8 }
  - { offsetInCU: 0x11732, offset: 0x11732, size: 0x8, addend: 0x0, symName: __ZNSt3__116allocator_traitsINS_9allocatorIiEEE10deallocateB8ue170006ERS2_Pim, symObjAddr: 0x1FF4, symBinAddr: 0x10000503C, symSize: 0x34 }
  - { offsetInCU: 0x11774, offset: 0x11774, size: 0x8, addend: 0x0, symName: __ZNSt3__16vectorIiNS_9allocatorIiEEE7__allocB8ue170006Ev, symObjAddr: 0x2028, symBinAddr: 0x100005070, symSize: 0x28 }
  - { offsetInCU: 0x1179A, offset: 0x1179A, size: 0x8, addend: 0x0, symName: __ZNKSt3__16vectorIiNS_9allocatorIiEEE8capacityB8ue170006Ev, symObjAddr: 0x2050, symBinAddr: 0x100005098, symSize: 0x40 }
  - { offsetInCU: 0x117C0, offset: 0x117C0, size: 0x8, addend: 0x0, symName: __ZNSt3__16vectorIiNS_9allocatorIiEEE22__base_destruct_at_endB8ue170006EPi, symObjAddr: 0x2090, symBinAddr: 0x1000050D8, symSize: 0x8C }
  - { offsetInCU: 0x11804, offset: 0x11804, size: 0x8, addend: 0x0, symName: __ZNSt3__116allocator_traitsINS_9allocatorIiEEE7destroyB8ue170006IivEEvRS2_PT_, symObjAddr: 0x211C, symBinAddr: 0x100005164, symSize: 0x2C }
  - { offsetInCU: 0x11841, offset: 0x11841, size: 0x8, addend: 0x0, symName: __ZNSt3__19allocatorIiE7destroyB8ue170006EPi, symObjAddr: 0x215C, symBinAddr: 0x1000051A4, symSize: 0x14 }
  - { offsetInCU: 0x11875, offset: 0x11875, size: 0x8, addend: 0x0, symName: __ZNKSt3__16vectorIiNS_9allocatorIiEEE31__annotate_contiguous_containerB8ue170006EPKvS5_S5_S5_, symObjAddr: 0x2170, symBinAddr: 0x1000051B8, symSize: 0x20 }
  - { offsetInCU: 0x118C7, offset: 0x118C7, size: 0x8, addend: 0x0, symName: __ZNKSt3__16vectorIiNS_9allocatorIiEEE4dataB8ue170006Ev, symObjAddr: 0x2190, symBinAddr: 0x1000051D8, symSize: 0x28 }
  - { offsetInCU: 0x118ED, offset: 0x118ED, size: 0x8, addend: 0x0, symName: __ZNKSt3__16vectorIiNS_9allocatorIiEEE4sizeB8ue170006Ev, symObjAddr: 0x21B8, symBinAddr: 0x100005200, symSize: 0x28 }
  - { offsetInCU: 0x11913, offset: 0x11913, size: 0x8, addend: 0x0, symName: __ZNSt3__19allocatorIiE10deallocateB8ue170006EPim, symObjAddr: 0x21E0, symBinAddr: 0x100005228, symSize: 0x40 }
  - { offsetInCU: 0x11955, offset: 0x11955, size: 0x8, addend: 0x0, symName: __ZNSt3__117__compressed_pairIPiNS_9allocatorIiEEE6secondB8ue170006Ev, symObjAddr: 0x2348, symBinAddr: 0x100005390, symSize: 0x24 }
  - { offsetInCU: 0x1197B, offset: 0x1197B, size: 0x8, addend: 0x0, symName: __ZNSt3__122__compressed_pair_elemINS_9allocatorIiEELi1ELb1EE5__getB8ue170006Ev, symObjAddr: 0x236C, symBinAddr: 0x1000053B4, symSize: 0x14 }
  - { offsetInCU: 0x119A1, offset: 0x119A1, size: 0x8, addend: 0x0, symName: __ZNKSt3__16vectorIiNS_9allocatorIiEEE9__end_capB8ue170006Ev, symObjAddr: 0x2380, symBinAddr: 0x1000053C8, symSize: 0x28 }
  - { offsetInCU: 0x119C7, offset: 0x119C7, size: 0x8, addend: 0x0, symName: __ZNKSt3__117__compressed_pairIPiNS_9allocatorIiEEE5firstB8ue170006Ev, symObjAddr: 0x23A8, symBinAddr: 0x1000053F0, symSize: 0x24 }
  - { offsetInCU: 0x119ED, offset: 0x119ED, size: 0x8, addend: 0x0, symName: __ZNKSt3__122__compressed_pair_elemIPiLi0ELb0EE5__getB8ue170006Ev, symObjAddr: 0x23CC, symBinAddr: 0x100005414, symSize: 0x14 }
  - { offsetInCU: 0x11A13, offset: 0x11A13, size: 0x8, addend: 0x0, symName: __ZNSt3__16vectorIiNS_9allocatorIiEEE9__end_capB8ue170006Ev, symObjAddr: 0x23E0, symBinAddr: 0x100005428, symSize: 0x28 }
  - { offsetInCU: 0x11A39, offset: 0x11A39, size: 0x8, addend: 0x0, symName: __ZNSt3__16vectorIiNS_9allocatorIiEEE22__construct_one_at_endB8ue170006IJRKiEEEvDpOT_, symObjAddr: 0x2408, symBinAddr: 0x100005450, symSize: 0x90 }
  - { offsetInCU: 0x11A88, offset: 0x11A88, size: 0x8, addend: 0x0, symName: __ZNSt3__16vectorIiNS_9allocatorIiEEE21__push_back_slow_pathIRKiEEvOT_, symObjAddr: 0x2498, symBinAddr: 0x1000054E0, symSize: 0xD8 }
  - { offsetInCU: 0x11AE6, offset: 0x11AE6, size: 0x8, addend: 0x0, symName: __ZNSt3__117__compressed_pairIPiNS_9allocatorIiEEE5firstB8ue170006Ev, symObjAddr: 0x2570, symBinAddr: 0x1000055B8, symSize: 0x24 }
  - { offsetInCU: 0x11B0C, offset: 0x11B0C, size: 0x8, addend: 0x0, symName: __ZNSt3__122__compressed_pair_elemIPiLi0ELb0EE5__getB8ue170006Ev, symObjAddr: 0x2594, symBinAddr: 0x1000055DC, symSize: 0x14 }
  - { offsetInCU: 0x11B4B, offset: 0x11B4B, size: 0x8, addend: 0x0, symName: __ZNSt3__16vectorIiNS_9allocatorIiEEE21_ConstructTransactionC1B8ue170006ERS3_m, symObjAddr: 0x25A8, symBinAddr: 0x1000055F0, symSize: 0x3C }
  - { offsetInCU: 0x11B93, offset: 0x11B93, size: 0x8, addend: 0x0, symName: __ZNSt3__116allocator_traitsINS_9allocatorIiEEE9constructB8ue170006IiJRKiEvEEvRS2_PT_DpOT0_, symObjAddr: 0x25E4, symBinAddr: 0x10000562C, symSize: 0x34 }
  - { offsetInCU: 0x11BEA, offset: 0x11BEA, size: 0x8, addend: 0x0, symName: __ZNSt3__16vectorIiNS_9allocatorIiEEE21_ConstructTransactionD1B8ue170006Ev, symObjAddr: 0x2618, symBinAddr: 0x100005660, symSize: 0x2C }
  - { offsetInCU: 0x11C14, offset: 0x11C14, size: 0x8, addend: 0x0, symName: __ZNSt3__16vectorIiNS_9allocatorIiEEE21_ConstructTransactionC2B8ue170006ERS3_m, symObjAddr: 0x2644, symBinAddr: 0x10000568C, symSize: 0x44 }
  - { offsetInCU: 0x11C5C, offset: 0x11C5C, size: 0x8, addend: 0x0, symName: __ZNSt3__19allocatorIiE9constructB8ue170006IiJRKiEEEvPT_DpOT0_, symObjAddr: 0x2688, symBinAddr: 0x1000056D0, symSize: 0x28 }
  - { offsetInCU: 0x11CB2, offset: 0x11CB2, size: 0x8, addend: 0x0, symName: __ZNSt3__16vectorIiNS_9allocatorIiEEE21_ConstructTransactionD2B8ue170006Ev, symObjAddr: 0x26B0, symBinAddr: 0x1000056F8, symSize: 0x20 }
  - { offsetInCU: 0x11CDC, offset: 0x11CDC, size: 0x8, addend: 0x0, symName: __ZNKSt3__16vectorIiNS_9allocatorIiEEE11__recommendB8ue170006Em, symObjAddr: 0x26D0, symBinAddr: 0x100005718, symSize: 0xB4 }
  - { offsetInCU: 0x11D31, offset: 0x11D31, size: 0x8, addend: 0x0, symName: __ZNSt3__114__split_bufferIiRNS_9allocatorIiEEEC1EmmS3_, symObjAddr: 0x2784, symBinAddr: 0x1000057CC, symSize: 0x44 }
  - { offsetInCU: 0x11D87, offset: 0x11D87, size: 0x8, addend: 0x0, symName: __ZNSt3__114__split_bufferIiRNS_9allocatorIiEEED1Ev, symObjAddr: 0x28D8, symBinAddr: 0x100005920, symSize: 0x2C }
  - { offsetInCU: 0x11DB3, offset: 0x11DB3, size: 0x8, addend: 0x0, symName: __ZNKSt3__16vectorIiNS_9allocatorIiEEE8max_sizeEv, symObjAddr: 0x2904, symBinAddr: 0x10000594C, symSize: 0x60 }
  - { offsetInCU: 0x11DDB, offset: 0x11DDB, size: 0x8, addend: 0x0, symName: __ZNKSt3__16vectorIiNS_9allocatorIiEEE20__throw_length_errorB8ue170006Ev, symObjAddr: 0x2964, symBinAddr: 0x1000059AC, symSize: 0x1C }
  - { offsetInCU: 0x11E0B, offset: 0x11E0B, size: 0x8, addend: 0x0, symName: __ZNSt3__116allocator_traitsINS_9allocatorIiEEE8max_sizeB8ue170006IS2_vEEmRKS2_, symObjAddr: 0x29D8, symBinAddr: 0x100005A20, symSize: 0x24 }
  - { offsetInCU: 0x11E39, offset: 0x11E39, size: 0x8, addend: 0x0, symName: __ZNKSt3__16vectorIiNS_9allocatorIiEEE7__allocB8ue170006Ev, symObjAddr: 0x29FC, symBinAddr: 0x100005A44, symSize: 0x28 }
  - { offsetInCU: 0x11E5F, offset: 0x11E5F, size: 0x8, addend: 0x0, symName: __ZNSt3__114numeric_limitsIlE3maxB8ue170006Ev, symObjAddr: 0x2A24, symBinAddr: 0x100005A6C, symSize: 0x14 }
  - { offsetInCU: 0x11E7D, offset: 0x11E7D, size: 0x8, addend: 0x0, symName: __ZNKSt3__16__lessIvvEclB8ue170006ImmEEbRKT_RKT0_, symObjAddr: 0x2A8C, symBinAddr: 0x100005AD4, symSize: 0x34 }
  - { offsetInCU: 0x11ED1, offset: 0x11ED1, size: 0x8, addend: 0x0, symName: __ZNKSt3__19allocatorIiE8max_sizeB8ue170006Ev, symObjAddr: 0x2AC0, symBinAddr: 0x100005B08, symSize: 0x14 }
  - { offsetInCU: 0x11EF7, offset: 0x11EF7, size: 0x8, addend: 0x0, symName: __ZNKSt3__117__compressed_pairIPiNS_9allocatorIiEEE6secondB8ue170006Ev, symObjAddr: 0x2AD4, symBinAddr: 0x100005B1C, symSize: 0x24 }
  - { offsetInCU: 0x11F1D, offset: 0x11F1D, size: 0x8, addend: 0x0, symName: __ZNKSt3__122__compressed_pair_elemINS_9allocatorIiEELi1ELb1EE5__getB8ue170006Ev, symObjAddr: 0x2AF8, symBinAddr: 0x100005B40, symSize: 0x14 }
  - { offsetInCU: 0x11F43, offset: 0x11F43, size: 0x8, addend: 0x0, symName: __ZNSt3__123__libcpp_numeric_limitsIlLb1EE3maxB8ue170006Ev, symObjAddr: 0x2B0C, symBinAddr: 0x100005B54, symSize: 0x8 }
  - { offsetInCU: 0x11F57, offset: 0x11F57, size: 0x8, addend: 0x0, symName: __ZNSt12length_errorC1B8ue170006EPKc, symObjAddr: 0x2B78, symBinAddr: 0x100005BC0, symSize: 0x34 }
  - { offsetInCU: 0x11F8F, offset: 0x11F8F, size: 0x8, addend: 0x0, symName: __ZNSt12length_errorC2B8ue170006EPKc, symObjAddr: 0x2BAC, symBinAddr: 0x100005BF4, symSize: 0x4C }
  - { offsetInCU: 0x11FC7, offset: 0x11FC7, size: 0x8, addend: 0x0, symName: __ZNSt3__114__split_bufferIiRNS_9allocatorIiEEEC2EmmS3_, symObjAddr: 0x2C4C, symBinAddr: 0x100005C94, symSize: 0xD4 }
  - { offsetInCU: 0x1203A, offset: 0x1203A, size: 0x8, addend: 0x0, symName: __ZNSt3__117__compressed_pairIPiRNS_9allocatorIiEEEC1B8ue170006IDnS4_EEOT_OT0_, symObjAddr: 0x2D20, symBinAddr: 0x100005D68, symSize: 0x3C }
  - { offsetInCU: 0x12092, offset: 0x12092, size: 0x8, addend: 0x0, symName: __ZNSt3__114__split_bufferIiRNS_9allocatorIiEEE7__allocB8ue170006Ev, symObjAddr: 0x2D9C, symBinAddr: 0x100005DE4, symSize: 0x28 }
  - { offsetInCU: 0x120B8, offset: 0x120B8, size: 0x8, addend: 0x0, symName: __ZNSt3__114__split_bufferIiRNS_9allocatorIiEEE9__end_capB8ue170006Ev, symObjAddr: 0x2DC4, symBinAddr: 0x100005E0C, symSize: 0x28 }
  - { offsetInCU: 0x120DE, offset: 0x120DE, size: 0x8, addend: 0x0, symName: __ZNSt3__117__compressed_pairIPiRNS_9allocatorIiEEEC2B8ue170006IDnS4_EEOT_OT0_, symObjAddr: 0x2DEC, symBinAddr: 0x100005E34, symSize: 0x48 }
  - { offsetInCU: 0x12136, offset: 0x12136, size: 0x8, addend: 0x0, symName: __ZNSt3__122__compressed_pair_elemIRNS_9allocatorIiEELi1ELb0EEC2B8ue170006IS3_vEEOT_, symObjAddr: 0x2E34, symBinAddr: 0x100005E7C, symSize: 0x20 }
  - { offsetInCU: 0x12178, offset: 0x12178, size: 0x8, addend: 0x0, symName: __ZNSt3__19allocatorIiE8allocateB8ue170006Em, symObjAddr: 0x2E54, symBinAddr: 0x100005E9C, symSize: 0x58 }
  - { offsetInCU: 0x121AC, offset: 0x121AC, size: 0x8, addend: 0x0, symName: __ZNSt3__117__compressed_pairIPiRNS_9allocatorIiEEE6secondB8ue170006Ev, symObjAddr: 0x2F90, symBinAddr: 0x100005FD8, symSize: 0x28 }
  - { offsetInCU: 0x121D2, offset: 0x121D2, size: 0x8, addend: 0x0, symName: __ZNSt3__122__compressed_pair_elemIRNS_9allocatorIiEELi1ELb0EE5__getB8ue170006Ev, symObjAddr: 0x2FB8, symBinAddr: 0x100006000, symSize: 0x18 }
  - { offsetInCU: 0x121F8, offset: 0x121F8, size: 0x8, addend: 0x0, symName: __ZNSt3__117__compressed_pairIPiRNS_9allocatorIiEEE5firstB8ue170006Ev, symObjAddr: 0x2FD0, symBinAddr: 0x100006018, symSize: 0x24 }
  - { offsetInCU: 0x1221E, offset: 0x1221E, size: 0x8, addend: 0x0, symName: __ZNSt3__116reverse_iteratorIPiEC1B8ue170006ES1_, symObjAddr: 0x306C, symBinAddr: 0x1000060B4, symSize: 0x34 }
  - { offsetInCU: 0x12256, offset: 0x12256, size: 0x8, addend: 0x0, symName: __ZNKSt3__116reverse_iteratorIPiE4baseB8ue170006Ev, symObjAddr: 0x30A0, symBinAddr: 0x1000060E8, symSize: 0x18 }
  - { offsetInCU: 0x1227C, offset: 0x1227C, size: 0x8, addend: 0x0, symName: __ZNKSt3__16vectorIiNS_9allocatorIiEEE14__annotate_newB8ue170006Em, symObjAddr: 0x30F4, symBinAddr: 0x10000613C, symSize: 0xAC }
  - { offsetInCU: 0x122D4, offset: 0x122D4, size: 0x8, addend: 0x0, symName: __ZNKSt3__111__move_loopINS_17_ClassicAlgPolicyEEclB8ue170006INS_16reverse_iteratorIPiEES6_S6_EENS_4pairIT_T1_EES8_T0_S9_, symObjAddr: 0x3490, symBinAddr: 0x1000064D8, symSize: 0xA0 }
  - { offsetInCU: 0x12344, offset: 0x12344, size: 0x8, addend: 0x0, symName: __ZNSt3__18_IterOpsINS_17_ClassicAlgPolicyEE11__iter_moveB8ue170006IRNS_16reverse_iteratorIPiEEEENS_9enable_ifIXsr12is_referenceIDTdeclsr3stdE7declvalIRT_EEEEE5valueEDTclsr3stdE4movedeclsr3stdE7declvalISA_EEEEE4typeEOS9_, symObjAddr: 0x36C4, symBinAddr: 0x10000670C, symSize: 0x28 }
  - { offsetInCU: 0x12370, offset: 0x12370, size: 0x8, addend: 0x0, symName: __ZNKSt3__116reverse_iteratorIPiEdeB8ue170006Ev, symObjAddr: 0x36EC, symBinAddr: 0x100006734, symSize: 0x28 }
  - { offsetInCU: 0x123A4, offset: 0x123A4, size: 0x8, addend: 0x0, symName: __ZNSt3__116reverse_iteratorIPiEppB8ue170006Ev, symObjAddr: 0x3714, symBinAddr: 0x10000675C, symSize: 0x20 }
  - { offsetInCU: 0x123CA, offset: 0x123CA, size: 0x8, addend: 0x0, symName: __ZNSt3__18_IterOpsINS_17_ClassicAlgPolicyEE25__validate_iter_referenceB8ue170006IRNS_16reverse_iteratorIPiEEEEvv, symObjAddr: 0x3734, symBinAddr: 0x10000677C, symSize: 0x4 }
  - { offsetInCU: 0x123E8, offset: 0x123E8, size: 0x8, addend: 0x0, symName: __ZNSt3__118__unwrap_iter_implINS_16reverse_iteratorIPiEELb0EE8__unwrapB8ue170006ES3_, symObjAddr: 0x3738, symBinAddr: 0x100006780, symSize: 0x24 }
  - { offsetInCU: 0x12410, offset: 0x12410, size: 0x8, addend: 0x0, symName: __ZNSt3__14pairINS_16reverse_iteratorIPiEES3_EC1B8ue170006IS3_S3_LPv0EEEOT_OT0_, symObjAddr: 0x375C, symBinAddr: 0x1000067A4, symSize: 0x3C }
  - { offsetInCU: 0x1246E, offset: 0x1246E, size: 0x8, addend: 0x0, symName: __ZNSt3__14pairINS_16reverse_iteratorIPiEES3_EC2B8ue170006IS3_S3_LPv0EEEOT_OT0_, symObjAddr: 0x3798, symBinAddr: 0x1000067E0, symSize: 0x34 }
  - { offsetInCU: 0x124CC, offset: 0x124CC, size: 0x8, addend: 0x0, symName: __ZNSt3__118__unwrap_iter_implINS_16reverse_iteratorIPiEELb0EE8__rewrapB8ue170006ES3_S3_, symObjAddr: 0x37CC, symBinAddr: 0x100006814, symSize: 0x2C }
  - { offsetInCU: 0x124F9, offset: 0x124F9, size: 0x8, addend: 0x0, symName: __ZNSt3__116reverse_iteratorIPiEC2B8ue170006ES1_, symObjAddr: 0x37F8, symBinAddr: 0x100006840, symSize: 0x28 }
  - { offsetInCU: 0x12531, offset: 0x12531, size: 0x8, addend: 0x0, symName: __ZNSt3__114__split_bufferIiRNS_9allocatorIiEEED2Ev, symObjAddr: 0x3820, symBinAddr: 0x100006868, symSize: 0x8C }
  - { offsetInCU: 0x1255D, offset: 0x1255D, size: 0x8, addend: 0x0, symName: __ZNSt3__114__split_bufferIiRNS_9allocatorIiEEE5clearB8ue170006Ev, symObjAddr: 0x38AC, symBinAddr: 0x1000068F4, symSize: 0x28 }
  - { offsetInCU: 0x12583, offset: 0x12583, size: 0x8, addend: 0x0, symName: __ZNKSt3__114__split_bufferIiRNS_9allocatorIiEEE8capacityB8ue170006Ev, symObjAddr: 0x38D4, symBinAddr: 0x10000691C, symSize: 0x40 }
  - { offsetInCU: 0x125A9, offset: 0x125A9, size: 0x8, addend: 0x0, symName: __ZNSt3__114__split_bufferIiRNS_9allocatorIiEEE17__destruct_at_endB8ue170006EPi, symObjAddr: 0x3914, symBinAddr: 0x10000695C, symSize: 0x2C }
  - { offsetInCU: 0x125DD, offset: 0x125DD, size: 0x8, addend: 0x0, symName: __ZNSt3__114__split_bufferIiRNS_9allocatorIiEEE17__destruct_at_endB8ue170006EPiNS_17integral_constantIbLb0EEE, symObjAddr: 0x3940, symBinAddr: 0x100006988, symSize: 0x80 }
  - { offsetInCU: 0x1261D, offset: 0x1261D, size: 0x8, addend: 0x0, symName: __ZNKSt3__114__split_bufferIiRNS_9allocatorIiEEE9__end_capB8ue170006Ev, symObjAddr: 0x39C0, symBinAddr: 0x100006A08, symSize: 0x28 }
  - { offsetInCU: 0x12643, offset: 0x12643, size: 0x8, addend: 0x0, symName: __ZNKSt3__117__compressed_pairIPiRNS_9allocatorIiEEE5firstB8ue170006Ev, symObjAddr: 0x39E8, symBinAddr: 0x100006A30, symSize: 0x24 }
  - { offsetInCU: 0x12669, offset: 0x12669, size: 0x8, addend: 0x0, symName: __ZNSt3__16vectorIiNS_9allocatorIiEEE11__make_iterB8ue170006EPi, symObjAddr: 0x3A0C, symBinAddr: 0x100006A54, symSize: 0x30 }
  - { offsetInCU: 0x1269E, offset: 0x1269E, size: 0x8, addend: 0x0, symName: __ZNSt3__111__wrap_iterIPiEC1B8ue170006ES1_, symObjAddr: 0x3A3C, symBinAddr: 0x100006A84, symSize: 0x34 }
  - { offsetInCU: 0x126D6, offset: 0x126D6, size: 0x8, addend: 0x0, symName: __ZNSt3__111__wrap_iterIPiEC2B8ue170006ES1_, symObjAddr: 0x3A70, symBinAddr: 0x100006AB8, symSize: 0x20 }
  - { offsetInCU: 0x1270E, offset: 0x1270E, size: 0x8, addend: 0x0, symName: __ZNSt3__118__unwrap_iter_implINS_11__wrap_iterIPiEELb1EE8__unwrapB8ue170006ES3_, symObjAddr: 0x3C04, symBinAddr: 0x100006C4C, symSize: 0x28 }
  - { offsetInCU: 0x1273B, offset: 0x1273B, size: 0x8, addend: 0x0, symName: __ZNSt3__119__to_address_helperINS_11__wrap_iterIPiEEvE6__callB8ue170006ERKS3_, symObjAddr: 0x3C50, symBinAddr: 0x100006C98, symSize: 0x30 }
  - { offsetInCU: 0x1275E, offset: 0x1275E, size: 0x8, addend: 0x0, symName: __ZNSt3__114pointer_traitsINS_11__wrap_iterIPiEEE10to_addressB8ue170006ES3_, symObjAddr: 0x3C80, symBinAddr: 0x100006CC8, symSize: 0x2C }
  - { offsetInCU: 0x12781, offset: 0x12781, size: 0x8, addend: 0x0, symName: __ZNKSt3__111__wrap_iterIPiE4baseB8ue170006Ev, symObjAddr: 0x3CAC, symBinAddr: 0x100006CF4, symSize: 0x18 }
  - { offsetInCU: 0x127A7, offset: 0x127A7, size: 0x8, addend: 0x0, symName: __ZNSt3__15dequeIiNS_9allocatorIiEEEC2B8ue170006Ev, symObjAddr: 0x3CC4, symBinAddr: 0x100006D0C, symSize: 0x5C }
  - { offsetInCU: 0x127D1, offset: 0x127D1, size: 0x8, addend: 0x0, symName: __ZNSt3__114__split_bufferIPiNS_9allocatorIS1_EEEC1B8ue170006Ev, symObjAddr: 0x3D20, symBinAddr: 0x100006D68, symSize: 0x2C }
  - { offsetInCU: 0x127FB, offset: 0x127FB, size: 0x8, addend: 0x0, symName: __ZNSt3__117__compressed_pairImNS_9allocatorIiEEEC1B8ue170006IiNS_18__default_init_tagEEEOT_OT0_, symObjAddr: 0x3D4C, symBinAddr: 0x100006D94, symSize: 0x3C }
  - { offsetInCU: 0x12853, offset: 0x12853, size: 0x8, addend: 0x0, symName: __ZNKSt3__15dequeIiNS_9allocatorIiEEE14__annotate_newB8ue170006Em, symObjAddr: 0x3D88, symBinAddr: 0x100006DD0, symSize: 0xC8 }
  - { offsetInCU: 0x12888, offset: 0x12888, size: 0x8, addend: 0x0, symName: __ZNSt3__114__split_bufferIPiNS_9allocatorIS1_EEEC2B8ue170006Ev, symObjAddr: 0x3E50, symBinAddr: 0x100006E98, symSize: 0x50 }
  - { offsetInCU: 0x128B2, offset: 0x128B2, size: 0x8, addend: 0x0, symName: __ZNSt3__117__compressed_pairIPPiNS_9allocatorIS1_EEEC1B8ue170006IDnNS_18__default_init_tagEEEOT_OT0_, symObjAddr: 0x3EA0, symBinAddr: 0x100006EE8, symSize: 0x3C }
  - { offsetInCU: 0x1290A, offset: 0x1290A, size: 0x8, addend: 0x0, symName: __ZNSt3__117__compressed_pairIPPiNS_9allocatorIS1_EEEC2B8ue170006IDnNS_18__default_init_tagEEEOT_OT0_, symObjAddr: 0x3EDC, symBinAddr: 0x100006F24, symSize: 0x40 }
  - { offsetInCU: 0x12962, offset: 0x12962, size: 0x8, addend: 0x0, symName: __ZNSt3__122__compressed_pair_elemIPPiLi0ELb0EEC2B8ue170006IDnvEEOT_, symObjAddr: 0x3F1C, symBinAddr: 0x100006F64, symSize: 0x1C }
  - { offsetInCU: 0x129A4, offset: 0x129A4, size: 0x8, addend: 0x0, symName: __ZNSt3__122__compressed_pair_elemINS_9allocatorIPiEELi1ELb1EEC2B8ue170006ENS_18__default_init_tagE, symObjAddr: 0x3F38, symBinAddr: 0x100006F80, symSize: 0x2C }
  - { offsetInCU: 0x129D8, offset: 0x129D8, size: 0x8, addend: 0x0, symName: __ZNSt3__19allocatorIPiEC2B8ue170006Ev, symObjAddr: 0x3F64, symBinAddr: 0x100006FAC, symSize: 0x2C }
  - { offsetInCU: 0x12A02, offset: 0x12A02, size: 0x8, addend: 0x0, symName: __ZNSt3__116__non_trivial_ifILb1ENS_9allocatorIPiEEEC2B8ue170006Ev, symObjAddr: 0x3F90, symBinAddr: 0x100006FD8, symSize: 0x14 }
  - { offsetInCU: 0x12A2C, offset: 0x12A2C, size: 0x8, addend: 0x0, symName: __ZNSt3__117__compressed_pairImNS_9allocatorIiEEEC2B8ue170006IiNS_18__default_init_tagEEEOT_OT0_, symObjAddr: 0x3FA4, symBinAddr: 0x100006FEC, symSize: 0x40 }
  - { offsetInCU: 0x12A84, offset: 0x12A84, size: 0x8, addend: 0x0, symName: __ZNSt3__122__compressed_pair_elemImLi0ELb0EEC2B8ue170006IivEEOT_, symObjAddr: 0x3FE4, symBinAddr: 0x10000702C, symSize: 0x24 }
  - { offsetInCU: 0x12AC6, offset: 0x12AC6, size: 0x8, addend: 0x0, symName: __ZNKSt3__15dequeIiNS_9allocatorIiEEE18__annotate_from_toB8ue170006EmmNS3_22__asan_annotation_typeENS3_23__asan_annotation_placeE, symObjAddr: 0x4008, symBinAddr: 0x100007050, symSize: 0x580 }
  - { offsetInCU: 0x12C82, offset: 0x12C82, size: 0x8, addend: 0x0, symName: __ZNKSt3__114__split_bufferIPiNS_9allocatorIS1_EEE4sizeB8ue170006Ev, symObjAddr: 0x4588, symBinAddr: 0x1000075D0, symSize: 0x28 }
  - { offsetInCU: 0x12CA8, offset: 0x12CA8, size: 0x8, addend: 0x0, symName: __ZNKSt3__114__split_bufferIPiNS_9allocatorIS1_EEE5beginB8ue170006Ev, symObjAddr: 0x45B0, symBinAddr: 0x1000075F8, symSize: 0x18 }
  - { offsetInCU: 0x12CCE, offset: 0x12CCE, size: 0x8, addend: 0x0, symName: __ZNKSt3__15dequeIiNS_9allocatorIiEEE5emptyB8ue170006Ev, symObjAddr: 0x45C8, symBinAddr: 0x100007610, symSize: 0x30 }
  - { offsetInCU: 0x12CF4, offset: 0x12CF4, size: 0x8, addend: 0x0, symName: __ZNKSt3__15dequeIiNS_9allocatorIiEEE44__annotate_double_ended_contiguous_containerB8ue170006EPKvS5_S5_S5_S5_S5_, symObjAddr: 0x45F8, symBinAddr: 0x100007640, symSize: 0x28 }
  - { offsetInCU: 0x12D5C, offset: 0x12D5C, size: 0x8, addend: 0x0, symName: __ZNSt3__15dequeIiNS_9allocatorIiEEED2B8ue170006Ev, symObjAddr: 0x4620, symBinAddr: 0x100007668, symSize: 0xA4 }
  - { offsetInCU: 0x12DB2, offset: 0x12DB2, size: 0x8, addend: 0x0, symName: __ZNSt3__15dequeIiNS_9allocatorIiEEE5clearEv, symObjAddr: 0x46C4, symBinAddr: 0x10000770C, symSize: 0x180 }
  - { offsetInCU: 0x12E0D, offset: 0x12E0D, size: 0x8, addend: 0x0, symName: __ZNKSt3__15dequeIiNS_9allocatorIiEEE17__annotate_deleteB8ue170006Ev, symObjAddr: 0x4844, symBinAddr: 0x10000788C, symSize: 0xE8 }
  - { offsetInCU: 0x12E50, offset: 0x12E50, size: 0x8, addend: 0x0, symName: __ZNSt3__114__split_bufferIPiNS_9allocatorIS1_EEE5beginB8ue170006Ev, symObjAddr: 0x492C, symBinAddr: 0x100007974, symSize: 0x18 }
  - { offsetInCU: 0x12E76, offset: 0x12E76, size: 0x8, addend: 0x0, symName: __ZNSt3__114__split_bufferIPiNS_9allocatorIS1_EEE3endB8ue170006Ev, symObjAddr: 0x4944, symBinAddr: 0x10000798C, symSize: 0x18 }
  - { offsetInCU: 0x12E9C, offset: 0x12E9C, size: 0x8, addend: 0x0, symName: __ZNSt3__15dequeIiNS_9allocatorIiEEE7__allocB8ue170006Ev, symObjAddr: 0x495C, symBinAddr: 0x1000079A4, symSize: 0x28 }
  - { offsetInCU: 0x12EC2, offset: 0x12EC2, size: 0x8, addend: 0x0, symName: __ZNSt3__114__split_bufferIPiNS_9allocatorIS1_EEED1Ev, symObjAddr: 0x4984, symBinAddr: 0x1000079CC, symSize: 0x2C }
  - { offsetInCU: 0x12EEE, offset: 0x12EEE, size: 0x8, addend: 0x0, symName: __ZNSt3__116__deque_iteratorIiPiRiPS1_lLl1024EEppB8ue170006Ev, symObjAddr: 0x49E4, symBinAddr: 0x100007A2C, symSize: 0x70 }
  - { offsetInCU: 0x12F14, offset: 0x12F14, size: 0x8, addend: 0x0, symName: __ZNSt3__15dequeIiNS_9allocatorIiEEE6__sizeB8ue170006Ev, symObjAddr: 0x4A54, symBinAddr: 0x100007A9C, symSize: 0x28 }
  - { offsetInCU: 0x12F3A, offset: 0x12F3A, size: 0x8, addend: 0x0, symName: __ZNSt3__114__split_bufferIPiNS_9allocatorIS1_EEE5frontB8ue170006Ev, symObjAddr: 0x4A7C, symBinAddr: 0x100007AC4, symSize: 0x18 }
  - { offsetInCU: 0x12F60, offset: 0x12F60, size: 0x8, addend: 0x0, symName: __ZNSt3__114__split_bufferIPiNS_9allocatorIS1_EEE9pop_frontB8ue170006Ev, symObjAddr: 0x4A94, symBinAddr: 0x100007ADC, symSize: 0x2C }
  - { offsetInCU: 0x12F86, offset: 0x12F86, size: 0x8, addend: 0x0, symName: __ZNSt3__117__compressed_pairImNS_9allocatorIiEEE5firstB8ue170006Ev, symObjAddr: 0x4AF0, symBinAddr: 0x100007B38, symSize: 0x24 }
  - { offsetInCU: 0x12FAC, offset: 0x12FAC, size: 0x8, addend: 0x0, symName: __ZNSt3__122__compressed_pair_elemImLi0ELb0EE5__getB8ue170006Ev, symObjAddr: 0x4B14, symBinAddr: 0x100007B5C, symSize: 0x14 }
  - { offsetInCU: 0x12FD2, offset: 0x12FD2, size: 0x8, addend: 0x0, symName: __ZNSt3__114__split_bufferIPiNS_9allocatorIS1_EEE19__destruct_at_beginB8ue170006EPS1_, symObjAddr: 0x4B28, symBinAddr: 0x100007B70, symSize: 0x2C }
  - { offsetInCU: 0x13006, offset: 0x13006, size: 0x8, addend: 0x0, symName: __ZNSt3__114__split_bufferIPiNS_9allocatorIS1_EEE19__destruct_at_beginEPS1_NS_17integral_constantIbLb1EEE, symObjAddr: 0x4B54, symBinAddr: 0x100007B9C, symSize: 0x20 }
  - { offsetInCU: 0x13046, offset: 0x13046, size: 0x8, addend: 0x0, symName: __ZNKSt3__15dequeIiNS_9allocatorIiEEE22__annotate_whole_blockB8ue170006EmNS3_22__asan_annotation_typeE, symObjAddr: 0x4B74, symBinAddr: 0x100007BBC, symSize: 0xAC }
  - { offsetInCU: 0x130B7, offset: 0x130B7, size: 0x8, addend: 0x0, symName: __ZNKSt3__15dequeIiNS_9allocatorIiEEE23__annotate_poison_blockB8ue170006EPKvS5_, symObjAddr: 0x4C20, symBinAddr: 0x100007C68, symSize: 0x44 }
  - { offsetInCU: 0x130FB, offset: 0x130FB, size: 0x8, addend: 0x0, symName: __ZNSt3__117__compressed_pairImNS_9allocatorIiEEE6secondB8ue170006Ev, symObjAddr: 0x4C64, symBinAddr: 0x100007CAC, symSize: 0x24 }
  - { offsetInCU: 0x13121, offset: 0x13121, size: 0x8, addend: 0x0, symName: __ZNSt3__114__split_bufferIPiNS_9allocatorIS1_EEED2Ev, symObjAddr: 0x4C88, symBinAddr: 0x100007CD0, symSize: 0x8C }
  - { offsetInCU: 0x1314D, offset: 0x1314D, size: 0x8, addend: 0x0, symName: __ZNSt3__114__split_bufferIPiNS_9allocatorIS1_EEE5clearB8ue170006Ev, symObjAddr: 0x4D14, symBinAddr: 0x100007D5C, symSize: 0x28 }
  - { offsetInCU: 0x13173, offset: 0x13173, size: 0x8, addend: 0x0, symName: __ZNSt3__116allocator_traitsINS_9allocatorIPiEEE10deallocateB8ue170006ERS3_PS2_m, symObjAddr: 0x4D3C, symBinAddr: 0x100007D84, symSize: 0x34 }
  - { offsetInCU: 0x131B5, offset: 0x131B5, size: 0x8, addend: 0x0, symName: __ZNSt3__114__split_bufferIPiNS_9allocatorIS1_EEE7__allocB8ue170006Ev, symObjAddr: 0x4D70, symBinAddr: 0x100007DB8, symSize: 0x28 }
  - { offsetInCU: 0x131DB, offset: 0x131DB, size: 0x8, addend: 0x0, symName: __ZNKSt3__114__split_bufferIPiNS_9allocatorIS1_EEE8capacityB8ue170006Ev, symObjAddr: 0x4D98, symBinAddr: 0x100007DE0, symSize: 0x40 }
  - { offsetInCU: 0x13201, offset: 0x13201, size: 0x8, addend: 0x0, symName: __ZNSt3__114__split_bufferIPiNS_9allocatorIS1_EEE17__destruct_at_endB8ue170006EPS1_, symObjAddr: 0x4DD8, symBinAddr: 0x100007E20, symSize: 0x2C }
  - { offsetInCU: 0x13235, offset: 0x13235, size: 0x8, addend: 0x0, symName: __ZNSt3__114__split_bufferIPiNS_9allocatorIS1_EEE17__destruct_at_endB8ue170006EPS1_NS_17integral_constantIbLb0EEE, symObjAddr: 0x4E04, symBinAddr: 0x100007E4C, symSize: 0x80 }
  - { offsetInCU: 0x13275, offset: 0x13275, size: 0x8, addend: 0x0, symName: __ZNSt3__116allocator_traitsINS_9allocatorIPiEEE7destroyB8ue170006IS2_vEEvRS3_PT_, symObjAddr: 0x4E84, symBinAddr: 0x100007ECC, symSize: 0x2C }
  - { offsetInCU: 0x132B2, offset: 0x132B2, size: 0x8, addend: 0x0, symName: __ZNSt3__19allocatorIPiE7destroyB8ue170006EPS1_, symObjAddr: 0x4EC4, symBinAddr: 0x100007F0C, symSize: 0x14 }
  - { offsetInCU: 0x132E6, offset: 0x132E6, size: 0x8, addend: 0x0, symName: __ZNSt3__19allocatorIPiE10deallocateB8ue170006EPS1_m, symObjAddr: 0x4ED8, symBinAddr: 0x100007F20, symSize: 0x40 }
  - { offsetInCU: 0x13328, offset: 0x13328, size: 0x8, addend: 0x0, symName: __ZNSt3__117__compressed_pairIPPiNS_9allocatorIS1_EEE6secondB8ue170006Ev, symObjAddr: 0x4F18, symBinAddr: 0x100007F60, symSize: 0x24 }
  - { offsetInCU: 0x1334E, offset: 0x1334E, size: 0x8, addend: 0x0, symName: __ZNSt3__122__compressed_pair_elemINS_9allocatorIPiEELi1ELb1EE5__getB8ue170006Ev, symObjAddr: 0x4F3C, symBinAddr: 0x100007F84, symSize: 0x14 }
  - { offsetInCU: 0x13374, offset: 0x13374, size: 0x8, addend: 0x0, symName: __ZNKSt3__114__split_bufferIPiNS_9allocatorIS1_EEE9__end_capB8ue170006Ev, symObjAddr: 0x4F50, symBinAddr: 0x100007F98, symSize: 0x28 }
  - { offsetInCU: 0x1339A, offset: 0x1339A, size: 0x8, addend: 0x0, symName: __ZNKSt3__117__compressed_pairIPPiNS_9allocatorIS1_EEE5firstB8ue170006Ev, symObjAddr: 0x4F78, symBinAddr: 0x100007FC0, symSize: 0x24 }
  - { offsetInCU: 0x133C0, offset: 0x133C0, size: 0x8, addend: 0x0, symName: __ZNKSt3__122__compressed_pair_elemIPPiLi0ELb0EE5__getB8ue170006Ev, symObjAddr: 0x4F9C, symBinAddr: 0x100007FE4, symSize: 0x14 }
  - { offsetInCU: 0x133E6, offset: 0x133E6, size: 0x8, addend: 0x0, symName: __ZNKSt3__15dequeIiNS_9allocatorIiEEE12__back_spareB8ue170006Ev, symObjAddr: 0x4FB0, symBinAddr: 0x100007FF8, symSize: 0x54 }
  - { offsetInCU: 0x1340C, offset: 0x1340C, size: 0x8, addend: 0x0, symName: __ZNSt3__15dequeIiNS_9allocatorIiEEE19__add_back_capacityEv, symObjAddr: 0x5004, symBinAddr: 0x10000804C, symSize: 0x34C }
  - { offsetInCU: 0x134C1, offset: 0x134C1, size: 0x8, addend: 0x0, symName: __ZNKSt3__15dequeIiNS_9allocatorIiEEE24__annotate_increase_backB8ue170006Em, symObjAddr: 0x5350, symBinAddr: 0x100008398, symSize: 0x7C }
  - { offsetInCU: 0x134F6, offset: 0x134F6, size: 0x8, addend: 0x0, symName: __ZNKSt3__15dequeIiNS_9allocatorIiEEE10__capacityB8ue170006Ev, symObjAddr: 0x53CC, symBinAddr: 0x100008414, symSize: 0x60 }
  - { offsetInCU: 0x1351C, offset: 0x1351C, size: 0x8, addend: 0x0, symName: __ZNKSt3__15dequeIiNS_9allocatorIiEEE13__front_spareB8ue170006Ev, symObjAddr: 0x542C, symBinAddr: 0x100008474, symSize: 0x18 }
  - { offsetInCU: 0x13542, offset: 0x13542, size: 0x8, addend: 0x0, symName: __ZNSt3__114__split_bufferIPiNS_9allocatorIS1_EEE9push_backB8ue170006ERKS1_, symObjAddr: 0x5444, symBinAddr: 0x10000848C, symSize: 0x260 }
  - { offsetInCU: 0x135BA, offset: 0x135BA, size: 0x8, addend: 0x0, symName: __ZNKSt3__114__split_bufferIPiNS_9allocatorIS1_EEE12__back_spareB8ue170006Ev, symObjAddr: 0x56A4, symBinAddr: 0x1000086EC, symSize: 0x40 }
  - { offsetInCU: 0x135E0, offset: 0x135E0, size: 0x8, addend: 0x0, symName: __ZNSt3__114__split_bufferIPiNS_9allocatorIS1_EEE9push_backEOS1_, symObjAddr: 0x56E4, symBinAddr: 0x10000872C, symSize: 0x260 }
  - { offsetInCU: 0x13658, offset: 0x13658, size: 0x8, addend: 0x0, symName: __ZNSt3__116allocator_traitsINS_9allocatorIiEEE8allocateB8ue170006ERS2_m, symObjAddr: 0x5944, symBinAddr: 0x10000898C, symSize: 0x2C }
  - { offsetInCU: 0x1368B, offset: 0x1368B, size: 0x8, addend: 0x0, symName: __ZNSt3__114__split_bufferIPiNS_9allocatorIS1_EEE10push_frontEOS1_, symObjAddr: 0x5970, symBinAddr: 0x1000089B8, symSize: 0x25C }
  - { offsetInCU: 0x13703, offset: 0x13703, size: 0x8, addend: 0x0, symName: __ZNSt3__114__split_bufferIPiRNS_9allocatorIS1_EEEC1EmmS4_, symObjAddr: 0x5BCC, symBinAddr: 0x100008C14, symSize: 0x44 }
  - { offsetInCU: 0x1375E, offset: 0x1375E, size: 0x8, addend: 0x0, symName: __ZNSt3__122__allocator_destructorINS_9allocatorIiEEEC1B8ue170006ERS2_m, symObjAddr: 0x5C10, symBinAddr: 0x100008C58, symSize: 0x3C }
  - { offsetInCU: 0x1380D, offset: 0x1380D, size: 0x8, addend: 0x0, symName: __ZNSt3__110unique_ptrIPiNS_22__allocator_destructorINS_9allocatorIiEEEEEC1B8ue170006ILb1EvEES1_NS_16__dependent_typeINS_27__unique_ptr_deleter_sfinaeIS5_EEXT_EE20__good_rval_ref_typeE, symObjAddr: 0x5C4C, symBinAddr: 0x100008C94, symSize: 0x3C }
  - { offsetInCU: 0x1385E, offset: 0x1385E, size: 0x8, addend: 0x0, symName: __ZNSt3__114__split_bufferIPiRNS_9allocatorIS1_EEE9push_backEOS1_, symObjAddr: 0x5C88, symBinAddr: 0x100008CD0, symSize: 0x260 }
  - { offsetInCU: 0x138D6, offset: 0x138D6, size: 0x8, addend: 0x0, symName: __ZNKSt3__110unique_ptrIPiNS_22__allocator_destructorINS_9allocatorIiEEEEE3getB8ue170006Ev, symObjAddr: 0x5EE8, symBinAddr: 0x100008F30, symSize: 0x28 }
  - { offsetInCU: 0x138FC, offset: 0x138FC, size: 0x8, addend: 0x0, symName: __ZNSt3__110unique_ptrIPiNS_22__allocator_destructorINS_9allocatorIiEEEEE7releaseB8ue170006Ev, symObjAddr: 0x5F10, symBinAddr: 0x100008F58, symSize: 0x44 }
  - { offsetInCU: 0x13931, offset: 0x13931, size: 0x8, addend: 0x0, symName: __ZNSt3__114__split_bufferIPiRNS_9allocatorIS1_EEE10push_frontERKS1_, symObjAddr: 0x5F54, symBinAddr: 0x100008F9C, symSize: 0x25C }
  - { offsetInCU: 0x139A9, offset: 0x139A9, size: 0x8, addend: 0x0, symName: __ZNSt3__114__split_bufferIPiNS_9allocatorIS1_EEE9__end_capB8ue170006Ev, symObjAddr: 0x61EC, symBinAddr: 0x100009234, symSize: 0x28 }
  - { offsetInCU: 0x139CF, offset: 0x139CF, size: 0x8, addend: 0x0, symName: __ZNSt3__114__split_bufferIPiRNS_9allocatorIS1_EEE9__end_capB8ue170006Ev, symObjAddr: 0x6214, symBinAddr: 0x10000925C, symSize: 0x28 }
  - { offsetInCU: 0x139F5, offset: 0x139F5, size: 0x8, addend: 0x0, symName: __ZNSt3__110unique_ptrIPiNS_22__allocator_destructorINS_9allocatorIiEEEEED1B8ue170006Ev, symObjAddr: 0x623C, symBinAddr: 0x100009284, symSize: 0x2C }
  - { offsetInCU: 0x13A1F, offset: 0x13A1F, size: 0x8, addend: 0x0, symName: __ZNSt3__114__split_bufferIPiRNS_9allocatorIS1_EEED1Ev, symObjAddr: 0x6268, symBinAddr: 0x1000092B0, symSize: 0x2C }
  - { offsetInCU: 0x13A4B, offset: 0x13A4B, size: 0x8, addend: 0x0, symName: __ZNSt3__114__split_bufferIPiRNS_9allocatorIS1_EEE18__construct_at_endINS_13move_iteratorIPS1_EEEENS_9enable_ifIXsr31__has_forward_iterator_categoryIT_EE5valueEvE4typeESB_SB_, symObjAddr: 0x62D4, symBinAddr: 0x10000931C, symSize: 0x60 }
  - { offsetInCU: 0x13A98, offset: 0x13A98, size: 0x8, addend: 0x0, symName: __ZNSt3__113move_iteratorIPPiEC1B8ue170006ES2_, symObjAddr: 0x6334, symBinAddr: 0x10000937C, symSize: 0x34 }
  - { offsetInCU: 0x13AD0, offset: 0x13AD0, size: 0x8, addend: 0x0, symName: __ZNSt3__116allocator_traitsINS_9allocatorIPiEEE9constructB8ue170006IS2_JRKS2_EvEEvRS3_PT_DpOT0_, symObjAddr: 0x6368, symBinAddr: 0x1000093B0, symSize: 0x34 }
  - { offsetInCU: 0x13B4A, offset: 0x13B4A, size: 0x8, addend: 0x0, symName: __ZNKSt3__114__move_trivialclB8ue170006IPiS2_Li0EEENS_4pairIPT_PT0_EES5_S5_S7_, symObjAddr: 0x6538, symBinAddr: 0x100009580, symSize: 0x48 }
  - { offsetInCU: 0x13BB7, offset: 0x13BB7, size: 0x8, addend: 0x0, symName: __ZNSt3__14pairIPPiS2_EC1B8ue170006IRS2_S2_LPv0EEEOT_OT0_, symObjAddr: 0x6760, symBinAddr: 0x1000097A8, symSize: 0x3C }
  - { offsetInCU: 0x13C15, offset: 0x13C15, size: 0x8, addend: 0x0, symName: __ZNSt3__14pairIPPiS2_EC2B8ue170006IRS2_S2_LPv0EEEOT_OT0_, symObjAddr: 0x679C, symBinAddr: 0x1000097E4, symSize: 0x34 }
  - { offsetInCU: 0x13C73, offset: 0x13C73, size: 0x8, addend: 0x0, symName: __ZNSt3__118__unwrap_iter_implIPPiLb1EE8__unwrapB8ue170006ES2_, symObjAddr: 0x67D0, symBinAddr: 0x100009818, symSize: 0x24 }
  - { offsetInCU: 0x13C96, offset: 0x13C96, size: 0x8, addend: 0x0, symName: __ZNSt3__14pairIPPiS2_EC1B8ue170006IS2_S2_LPv0EEEOT_OT0_, symObjAddr: 0x67F4, symBinAddr: 0x10000983C, symSize: 0x3C }
  - { offsetInCU: 0x13CF4, offset: 0x13CF4, size: 0x8, addend: 0x0, symName: __ZNSt3__14pairIPPiS2_EC2B8ue170006IS2_S2_LPv0EEEOT_OT0_, symObjAddr: 0x6830, symBinAddr: 0x100009878, symSize: 0x34 }
  - { offsetInCU: 0x13D52, offset: 0x13D52, size: 0x8, addend: 0x0, symName: __ZNSt3__118__unwrap_iter_implIPPiLb1EE8__rewrapB8ue170006ES2_S2_, symObjAddr: 0x6864, symBinAddr: 0x1000098AC, symSize: 0x50 }
  - { offsetInCU: 0x13D83, offset: 0x13D83, size: 0x8, addend: 0x0, symName: __ZNSt3__114__split_bufferIPiRNS_9allocatorIS1_EEE28__construct_at_end_with_sizeINS_13move_iteratorIPS1_EEEEvT_m, symObjAddr: 0x68B4, symBinAddr: 0x1000098FC, symSize: 0xDC }
  - { offsetInCU: 0x13DE9, offset: 0x13DE9, size: 0x8, addend: 0x0, symName: __ZNSt3__114__split_bufferIPiRNS_9allocatorIS1_EEE21_ConstructTransactionC1B8ue170006EPPS1_m, symObjAddr: 0x69CC, symBinAddr: 0x100009A14, symSize: 0x3C }
  - { offsetInCU: 0x13E2F, offset: 0x13E2F, size: 0x8, addend: 0x0, symName: __ZNSt3__116allocator_traitsINS_9allocatorIPiEEE9constructB8ue170006IS2_JS2_EvEEvRS3_PT_DpOT0_, symObjAddr: 0x6A08, symBinAddr: 0x100009A50, symSize: 0x34 }
  - { offsetInCU: 0x13E86, offset: 0x13E86, size: 0x8, addend: 0x0, symName: __ZNSt3__114__split_bufferIPiRNS_9allocatorIS1_EEE7__allocB8ue170006Ev, symObjAddr: 0x6A3C, symBinAddr: 0x100009A84, symSize: 0x28 }
  - { offsetInCU: 0x13EAC, offset: 0x13EAC, size: 0x8, addend: 0x0, symName: __ZNKSt3__113move_iteratorIPPiEdeB8ue170006Ev, symObjAddr: 0x6A64, symBinAddr: 0x100009AAC, symSize: 0x18 }
  - { offsetInCU: 0x13ED2, offset: 0x13ED2, size: 0x8, addend: 0x0, symName: __ZNSt3__113move_iteratorIPPiEppB8ue170006Ev, symObjAddr: 0x6A7C, symBinAddr: 0x100009AC4, symSize: 0x20 }
  - { offsetInCU: 0x13EF8, offset: 0x13EF8, size: 0x8, addend: 0x0, symName: __ZNSt3__114__split_bufferIPiRNS_9allocatorIS1_EEE21_ConstructTransactionD1B8ue170006Ev, symObjAddr: 0x6A9C, symBinAddr: 0x100009AE4, symSize: 0x2C }
  - { offsetInCU: 0x13F22, offset: 0x13F22, size: 0x8, addend: 0x0, symName: __ZNSt3__114__split_bufferIPiRNS_9allocatorIS1_EEE21_ConstructTransactionC2B8ue170006EPPS1_m, symObjAddr: 0x6AC8, symBinAddr: 0x100009B10, symSize: 0x44 }
  - { offsetInCU: 0x13F68, offset: 0x13F68, size: 0x8, addend: 0x0, symName: __ZNSt3__19allocatorIPiE9constructB8ue170006IS1_JS1_EEEvPT_DpOT0_, symObjAddr: 0x6B0C, symBinAddr: 0x100009B54, symSize: 0x28 }
  - { offsetInCU: 0x13FBE, offset: 0x13FBE, size: 0x8, addend: 0x0, symName: __ZNSt3__117__compressed_pairIPPiRNS_9allocatorIS1_EEE6secondB8ue170006Ev, symObjAddr: 0x6B34, symBinAddr: 0x100009B7C, symSize: 0x28 }
  - { offsetInCU: 0x13FE4, offset: 0x13FE4, size: 0x8, addend: 0x0, symName: __ZNSt3__122__compressed_pair_elemIRNS_9allocatorIPiEELi1ELb0EE5__getB8ue170006Ev, symObjAddr: 0x6B5C, symBinAddr: 0x100009BA4, symSize: 0x18 }
  - { offsetInCU: 0x1400A, offset: 0x1400A, size: 0x8, addend: 0x0, symName: __ZNSt3__114__split_bufferIPiRNS_9allocatorIS1_EEE21_ConstructTransactionD2B8ue170006Ev, symObjAddr: 0x6B74, symBinAddr: 0x100009BBC, symSize: 0x20 }
  - { offsetInCU: 0x14034, offset: 0x14034, size: 0x8, addend: 0x0, symName: __ZNKSt3__113move_iteratorIPPiE4baseB8ue170006Ev, symObjAddr: 0x6C0C, symBinAddr: 0x100009C54, symSize: 0x18 }
  - { offsetInCU: 0x1405A, offset: 0x1405A, size: 0x8, addend: 0x0, symName: __ZNSt3__113move_iteratorIPPiEC2B8ue170006ES2_, symObjAddr: 0x6C24, symBinAddr: 0x100009C6C, symSize: 0x20 }
  - { offsetInCU: 0x14092, offset: 0x14092, size: 0x8, addend: 0x0, symName: __ZNSt3__19allocatorIPiE9constructB8ue170006IS1_JRKS1_EEEvPT_DpOT0_, symObjAddr: 0x6C44, symBinAddr: 0x100009C8C, symSize: 0x28 }
  - { offsetInCU: 0x140F2, offset: 0x140F2, size: 0x8, addend: 0x0, symName: __ZNKSt3__123__move_backward_trivialclB8ue170006IPiS2_Li0EEENS_4pairIPT_PT0_EES5_S5_S7_, symObjAddr: 0x6DE8, symBinAddr: 0x100009E30, symSize: 0x48 }
  - { offsetInCU: 0x1415A, offset: 0x1415A, size: 0x8, addend: 0x0, symName: __ZNSt3__14pairIPPiS2_EC1B8ue170006IRS2_S5_LPv0EEEOT_OT0_, symObjAddr: 0x6EF8, symBinAddr: 0x100009F40, symSize: 0x3C }
  - { offsetInCU: 0x141B8, offset: 0x141B8, size: 0x8, addend: 0x0, symName: __ZNSt3__14pairIPPiS2_EC2B8ue170006IRS2_S5_LPv0EEEOT_OT0_, symObjAddr: 0x6F34, symBinAddr: 0x100009F7C, symSize: 0x34 }
  - { offsetInCU: 0x14216, offset: 0x14216, size: 0x8, addend: 0x0, symName: __ZNSt3__114__split_bufferIPiRNS_9allocatorIS1_EEEC2EmmS4_, symObjAddr: 0x6F68, symBinAddr: 0x100009FB0, symSize: 0xD4 }
  - { offsetInCU: 0x14289, offset: 0x14289, size: 0x8, addend: 0x0, symName: __ZNSt3__117__compressed_pairIPPiRNS_9allocatorIS1_EEEC1B8ue170006IDnS5_EEOT_OT0_, symObjAddr: 0x703C, symBinAddr: 0x10000A084, symSize: 0x3C }
  - { offsetInCU: 0x142E1, offset: 0x142E1, size: 0x8, addend: 0x0, symName: __ZNSt3__117__compressed_pairIPPiRNS_9allocatorIS1_EEEC2B8ue170006IDnS5_EEOT_OT0_, symObjAddr: 0x70B8, symBinAddr: 0x10000A100, symSize: 0x48 }
  - { offsetInCU: 0x14339, offset: 0x14339, size: 0x8, addend: 0x0, symName: __ZNSt3__122__compressed_pair_elemIRNS_9allocatorIPiEELi1ELb0EEC2B8ue170006IS4_vEEOT_, symObjAddr: 0x7100, symBinAddr: 0x10000A148, symSize: 0x20 }
  - { offsetInCU: 0x1437B, offset: 0x1437B, size: 0x8, addend: 0x0, symName: __ZNSt3__19allocatorIPiE8allocateB8ue170006Em, symObjAddr: 0x7120, symBinAddr: 0x10000A168, symSize: 0x58 }
  - { offsetInCU: 0x143B9, offset: 0x143B9, size: 0x8, addend: 0x0, symName: __ZNSt3__116allocator_traitsINS_9allocatorIPiEEE8max_sizeB8ue170006IS3_vEEmRKS3_, symObjAddr: 0x7178, symBinAddr: 0x10000A1C0, symSize: 0x24 }
  - { offsetInCU: 0x143E7, offset: 0x143E7, size: 0x8, addend: 0x0, symName: __ZNKSt3__19allocatorIPiE8max_sizeB8ue170006Ev, symObjAddr: 0x719C, symBinAddr: 0x10000A1E4, symSize: 0x14 }
  - { offsetInCU: 0x1440D, offset: 0x1440D, size: 0x8, addend: 0x0, symName: __ZNSt3__122__allocator_destructorINS_9allocatorIiEEEC2B8ue170006ERS2_m, symObjAddr: 0x71B0, symBinAddr: 0x10000A1F8, symSize: 0x2C }
  - { offsetInCU: 0x14453, offset: 0x14453, size: 0x8, addend: 0x0, symName: __ZNSt3__110unique_ptrIPiNS_22__allocator_destructorINS_9allocatorIiEEEEEC2B8ue170006ILb1EvEES1_NS_16__dependent_typeINS_27__unique_ptr_deleter_sfinaeIS5_EEXT_EE20__good_rval_ref_typeE, symObjAddr: 0x71DC, symBinAddr: 0x10000A224, symSize: 0x48 }
  - { offsetInCU: 0x144A4, offset: 0x144A4, size: 0x8, addend: 0x0, symName: __ZNSt3__117__compressed_pairIPiNS_22__allocator_destructorINS_9allocatorIiEEEEEC1B8ue170006IRS1_S5_EEOT_OT0_, symObjAddr: 0x7224, symBinAddr: 0x10000A26C, symSize: 0x3C }
  - { offsetInCU: 0x144FC, offset: 0x144FC, size: 0x8, addend: 0x0, symName: __ZNSt3__117__compressed_pairIPiNS_22__allocator_destructorINS_9allocatorIiEEEEEC2B8ue170006IRS1_S5_EEOT_OT0_, symObjAddr: 0x7260, symBinAddr: 0x10000A2A8, symSize: 0x48 }
  - { offsetInCU: 0x14554, offset: 0x14554, size: 0x8, addend: 0x0, symName: __ZNSt3__122__compressed_pair_elemIPiLi0ELb0EEC2B8ue170006IRS1_vEEOT_, symObjAddr: 0x72A8, symBinAddr: 0x10000A2F0, symSize: 0x24 }
  - { offsetInCU: 0x14596, offset: 0x14596, size: 0x8, addend: 0x0, symName: __ZNSt3__122__compressed_pair_elemINS_22__allocator_destructorINS_9allocatorIiEEEELi1ELb0EEC2B8ue170006IS4_vEEOT_, symObjAddr: 0x72CC, symBinAddr: 0x10000A314, symSize: 0x24 }
  - { offsetInCU: 0x145D8, offset: 0x145D8, size: 0x8, addend: 0x0, symName: __ZNKSt3__117__compressed_pairIPiNS_22__allocator_destructorINS_9allocatorIiEEEEE5firstB8ue170006Ev, symObjAddr: 0x72F0, symBinAddr: 0x10000A338, symSize: 0x24 }
  - { offsetInCU: 0x145FE, offset: 0x145FE, size: 0x8, addend: 0x0, symName: __ZNSt3__117__compressed_pairIPiNS_22__allocator_destructorINS_9allocatorIiEEEEE5firstB8ue170006Ev, symObjAddr: 0x7314, symBinAddr: 0x10000A35C, symSize: 0x24 }
  - { offsetInCU: 0x14624, offset: 0x14624, size: 0x8, addend: 0x0, symName: __ZNSt3__117__compressed_pairIPPiNS_9allocatorIS1_EEE5firstB8ue170006Ev, symObjAddr: 0x7338, symBinAddr: 0x10000A380, symSize: 0x24 }
  - { offsetInCU: 0x1464A, offset: 0x1464A, size: 0x8, addend: 0x0, symName: __ZNSt3__122__compressed_pair_elemIPPiLi0ELb0EE5__getB8ue170006Ev, symObjAddr: 0x735C, symBinAddr: 0x10000A3A4, symSize: 0x14 }
  - { offsetInCU: 0x14670, offset: 0x14670, size: 0x8, addend: 0x0, symName: __ZNSt3__117__compressed_pairIPPiRNS_9allocatorIS1_EEE5firstB8ue170006Ev, symObjAddr: 0x7370, symBinAddr: 0x10000A3B8, symSize: 0x24 }
  - { offsetInCU: 0x14696, offset: 0x14696, size: 0x8, addend: 0x0, symName: __ZNSt3__110unique_ptrIPiNS_22__allocator_destructorINS_9allocatorIiEEEEED2B8ue170006Ev, symObjAddr: 0x7394, symBinAddr: 0x10000A3DC, symSize: 0x30 }
  - { offsetInCU: 0x146C0, offset: 0x146C0, size: 0x8, addend: 0x0, symName: __ZNSt3__110unique_ptrIPiNS_22__allocator_destructorINS_9allocatorIiEEEEE5resetB8ue170006ES1_, symObjAddr: 0x73C4, symBinAddr: 0x10000A40C, symSize: 0x78 }
  - { offsetInCU: 0x14704, offset: 0x14704, size: 0x8, addend: 0x0, symName: __ZNSt3__117__compressed_pairIPiNS_22__allocator_destructorINS_9allocatorIiEEEEE6secondB8ue170006Ev, symObjAddr: 0x743C, symBinAddr: 0x10000A484, symSize: 0x28 }
  - { offsetInCU: 0x1472A, offset: 0x1472A, size: 0x8, addend: 0x0, symName: __ZNSt3__122__allocator_destructorINS_9allocatorIiEEEclB8ue170006EPi, symObjAddr: 0x7464, symBinAddr: 0x10000A4AC, symSize: 0x34 }
  - { offsetInCU: 0x1475E, offset: 0x1475E, size: 0x8, addend: 0x0, symName: __ZNSt3__122__compressed_pair_elemINS_22__allocator_destructorINS_9allocatorIiEEEELi1ELb0EE5__getB8ue170006Ev, symObjAddr: 0x7498, symBinAddr: 0x10000A4E0, symSize: 0x14 }
  - { offsetInCU: 0x14784, offset: 0x14784, size: 0x8, addend: 0x0, symName: __ZNSt3__114__split_bufferIPiRNS_9allocatorIS1_EEED2Ev, symObjAddr: 0x74AC, symBinAddr: 0x10000A4F4, symSize: 0x8C }
  - { offsetInCU: 0x147B0, offset: 0x147B0, size: 0x8, addend: 0x0, symName: __ZNSt3__114__split_bufferIPiRNS_9allocatorIS1_EEE5clearB8ue170006Ev, symObjAddr: 0x7538, symBinAddr: 0x10000A580, symSize: 0x28 }
  - { offsetInCU: 0x147D6, offset: 0x147D6, size: 0x8, addend: 0x0, symName: __ZNKSt3__114__split_bufferIPiRNS_9allocatorIS1_EEE8capacityB8ue170006Ev, symObjAddr: 0x7560, symBinAddr: 0x10000A5A8, symSize: 0x40 }
  - { offsetInCU: 0x147FC, offset: 0x147FC, size: 0x8, addend: 0x0, symName: __ZNSt3__114__split_bufferIPiRNS_9allocatorIS1_EEE17__destruct_at_endB8ue170006EPS1_, symObjAddr: 0x75A0, symBinAddr: 0x10000A5E8, symSize: 0x2C }
  - { offsetInCU: 0x14830, offset: 0x14830, size: 0x8, addend: 0x0, symName: __ZNSt3__114__split_bufferIPiRNS_9allocatorIS1_EEE17__destruct_at_endB8ue170006EPS1_NS_17integral_constantIbLb0EEE, symObjAddr: 0x75CC, symBinAddr: 0x10000A614, symSize: 0x80 }
  - { offsetInCU: 0x14870, offset: 0x14870, size: 0x8, addend: 0x0, symName: __ZNKSt3__114__split_bufferIPiRNS_9allocatorIS1_EEE9__end_capB8ue170006Ev, symObjAddr: 0x764C, symBinAddr: 0x10000A694, symSize: 0x28 }
  - { offsetInCU: 0x14896, offset: 0x14896, size: 0x8, addend: 0x0, symName: __ZNKSt3__117__compressed_pairIPPiRNS_9allocatorIS1_EEE5firstB8ue170006Ev, symObjAddr: 0x7674, symBinAddr: 0x10000A6BC, symSize: 0x24 }
  - { offsetInCU: 0x148BC, offset: 0x148BC, size: 0x8, addend: 0x0, symName: __ZNKSt3__114__split_bufferIPiNS_9allocatorIS1_EEE5emptyB8ue170006Ev, symObjAddr: 0x7698, symBinAddr: 0x10000A6E0, symSize: 0x28 }
  - { offsetInCU: 0x148E2, offset: 0x148E2, size: 0x8, addend: 0x0, symName: __ZNSt3__116__deque_iteratorIiPiRiPS1_lLl1024EEC1B8ue170006ES3_S1_, symObjAddr: 0x76C0, symBinAddr: 0x10000A708, symSize: 0x3C }
  - { offsetInCU: 0x1492A, offset: 0x1492A, size: 0x8, addend: 0x0, symName: __ZNSt3__116__deque_iteratorIiPiRiPS1_lLl1024EEC2B8ue170006ES3_S1_, symObjAddr: 0x76FC, symBinAddr: 0x10000A744, symSize: 0x2C }
  - { offsetInCU: 0x14972, offset: 0x14972, size: 0x8, addend: 0x0, symName: __ZNKSt3__16__lessIvvEclB8ue170006IiiEEbRKT_RKT0_, symObjAddr: 0x825C, symBinAddr: 0x10000B2A4, symSize: 0x34 }
  - { offsetInCU: 0x149C6, offset: 0x149C6, size: 0x8, addend: 0x0, symName: __ZNSt3__116__deque_iteratorIiPiRiPS1_lLl1024EEmmB8ue170006Ev, symObjAddr: 0x8290, symBinAddr: 0x10000B2D8, symSize: 0x68 }
  - { offsetInCU: 0x149EC, offset: 0x149EC, size: 0x8, addend: 0x0, symName: __ZNSt3__18_IterOpsINS_17_ClassicAlgPolicyEE9iter_swapB8ue170006IRNS_16__deque_iteratorIiPiRiPS5_lLl1024EEES9_EEvOT_OT0_, symObjAddr: 0x82F8, symBinAddr: 0x10000B340, symSize: 0x4C }
  - { offsetInCU: 0x14A34, offset: 0x14A34, size: 0x8, addend: 0x0, symName: __ZNSt3__18_IterOpsINS_17_ClassicAlgPolicyEE9iter_swapB8ue170006IRNS_16__deque_iteratorIiPiRiPS5_lLl1024EEES8_EEvOT_OT0_, symObjAddr: 0x8B2C, symBinAddr: 0x10000BB74, symSize: 0x4C }
  - { offsetInCU: 0x14A77, offset: 0x14A77, size: 0x8, addend: 0x0, symName: __ZNSt3__18_IterOpsINS_17_ClassicAlgPolicyEE11__iter_moveB8ue170006IRNS_16__deque_iteratorIiPiRiPS5_lLl1024EEEEENS_9enable_ifIXsr12is_referenceIDTdeclsr3stdE7declvalIRT_EEEEE5valueEDTclsr3stdE4movedeclsr3stdE7declvalISC_EEEEE4typeEOSB_, symObjAddr: 0x9D0C, symBinAddr: 0x10000CD54, symSize: 0x28 }
  - { offsetInCU: 0x14AA3, offset: 0x14AA3, size: 0x8, addend: 0x0, symName: __ZNSt3__18_IterOpsINS_17_ClassicAlgPolicyEE25__validate_iter_referenceB8ue170006IRNS_16__deque_iteratorIiPiRiPS5_lLl1024EEEEEvv, symObjAddr: 0x9D34, symBinAddr: 0x10000CD7C, symSize: 0x4 }
  - { offsetInCU: 0x14AC1, offset: 0x14AC1, size: 0x8, addend: 0x0, symName: __ZNSt3__18_IterOpsINS_17_ClassicAlgPolicyEE4nextB8ue170006INS_16__deque_iteratorIiPiRiPS5_lLl1024EEEEET_S9_S9_, symObjAddr: 0x9D38, symBinAddr: 0x10000CD80, symSize: 0x2C }
  - { offsetInCU: 0x14AF7, offset: 0x14AF7, size: 0x8, addend: 0x0, symName: __ZNSt3__116__deque_iteratorIiPiRiPS1_lLl1024EEpLB8ue170006El, symObjAddr: 0xA7EC, symBinAddr: 0x10000D834, symSize: 0x110 }
  - { offsetInCU: 0x14B49, offset: 0x14B49, size: 0x8, addend: 0x0, symName: __ZNSt3__116__deque_iteratorIiPiRiPS1_lLl1024EEmIB8ue170006El, symObjAddr: 0xAC58, symBinAddr: 0x10000DCA0, symSize: 0x34 }
  - { offsetInCU: 0x14B7E, offset: 0x14B7E, size: 0x8, addend: 0x0, symName: __ZNSt3__18_IterOpsINS_17_ClassicAlgPolicyEE9iter_swapB8ue170006INS_16__deque_iteratorIiPiRiPS5_lLl1024EEES8_EEvOT_OT0_, symObjAddr: 0xB1DC, symBinAddr: 0x10000E224, symSize: 0x4C }
  - { offsetInCU: 0x14BDF, offset: 0x14BDF, size: 0x8, addend: 0x0, symName: __ZNSt3__14pairINS_16__deque_iteratorIiPiRiPS2_lLl1024EEEbEC1B8ue170006IRS5_RbLPv0EEEOT_OT0_, symObjAddr: 0xB244, symBinAddr: 0x10000E28C, symSize: 0x3C }
  - { offsetInCU: 0x14C3D, offset: 0x14C3D, size: 0x8, addend: 0x0, symName: __ZNSt3__14pairINS_16__deque_iteratorIiPiRiPS2_lLl1024EEEbEC2B8ue170006IRS5_RbLPv0EEEOT_OT0_, symObjAddr: 0xB280, symBinAddr: 0x10000E2C8, symSize: 0x38 }
  - { offsetInCU: 0x14C9B, offset: 0x14C9B, size: 0x8, addend: 0x0, symName: __ZNSt3__118__unwrap_iter_implINS_16__deque_iteratorIiPiRiPS2_lLl1024EEELb0EE8__unwrapB8ue170006ES5_, symObjAddr: 0xB2B8, symBinAddr: 0x10000E300, symSize: 0x24 }
  - { offsetInCU: 0x14CBE, offset: 0x14CBE, size: 0x8, addend: 0x0, symName: __ZNSt3__15dequeIiNS_9allocatorIiEEEC2ESt16initializer_listIiE, symObjAddr: 0xB2DC, symBinAddr: 0x10000E324, symSize: 0xB8 }
  - { offsetInCU: 0x14CF9, offset: 0x14CF9, size: 0x8, addend: 0x0, symName: __ZNSt3__15dequeIiNS_9allocatorIiEEE8__appendIPKiEEvT_S7_PNS_9enable_ifIXsr31__has_forward_iterator_categoryIS7_EE5valueEvE4typeE, symObjAddr: 0xB394, symBinAddr: 0x10000E3DC, symSize: 0x54 }
  - { offsetInCU: 0x14D53, offset: 0x14D53, size: 0x8, addend: 0x0, symName: __ZNKSt16initializer_listIiE5beginB8ue170006Ev, symObjAddr: 0xB3E8, symBinAddr: 0x10000E430, symSize: 0x18 }
  - { offsetInCU: 0x14D79, offset: 0x14D79, size: 0x8, addend: 0x0, symName: __ZNKSt16initializer_listIiE3endB8ue170006Ev, symObjAddr: 0xB400, symBinAddr: 0x10000E448, symSize: 0x20 }
  - { offsetInCU: 0x14D9F, offset: 0x14D9F, size: 0x8, addend: 0x0, symName: __ZNSt3__15dequeIiNS_9allocatorIiEEE18__append_with_sizeB8ue170006IPKiEEvT_m, symObjAddr: 0xB420, symBinAddr: 0x10000E468, symSize: 0x20C }
  - { offsetInCU: 0x14E6E, offset: 0x14E6E, size: 0x8, addend: 0x0, symName: __ZNSt3__15dequeIiNS_9allocatorIiEEE19__add_back_capacityEm, symObjAddr: 0xB658, symBinAddr: 0x10000E6A0, symSize: 0x63C }
  - { offsetInCU: 0x14F92, offset: 0x14F92, size: 0x8, addend: 0x0, symName: __ZNSt3__15dequeIiNS_9allocatorIiEEE13__deque_rangeC1B8ue170006ENS_16__deque_iteratorIiPiRiPS6_lLl1024EEES9_, symObjAddr: 0xBC94, symBinAddr: 0x10000ECDC, symSize: 0x4C }
  - { offsetInCU: 0x14FDA, offset: 0x14FDA, size: 0x8, addend: 0x0, symName: __ZNKSt3__15dequeIiNS_9allocatorIiEEE13__deque_range5beginB8ue170006Ev, symObjAddr: 0xBCE0, symBinAddr: 0x10000ED28, symSize: 0x24 }
  - { offsetInCU: 0x15000, offset: 0x15000, size: 0x8, addend: 0x0, symName: __ZNKSt3__15dequeIiNS_9allocatorIiEEE13__deque_range3endB8ue170006Ev, symObjAddr: 0xBD04, symBinAddr: 0x10000ED4C, symSize: 0x50 }
  - { offsetInCU: 0x15026, offset: 0x15026, size: 0x8, addend: 0x0, symName: __ZNKSt3__15dequeIiNS_9allocatorIiEEE13__deque_rangedeB8ue170006Ev, symObjAddr: 0xBD88, symBinAddr: 0x10000EDD0, symSize: 0x7C }
  - { offsetInCU: 0x15060, offset: 0x15060, size: 0x8, addend: 0x0, symName: __ZNSt3__15dequeIiNS_9allocatorIiEEE21_ConstructTransactionC1B8ue170006EPS3_RNS3_19__deque_block_rangeE, symObjAddr: 0xBE04, symBinAddr: 0x10000EE4C, symSize: 0x3C }
  - { offsetInCU: 0x150A8, offset: 0x150A8, size: 0x8, addend: 0x0, symName: __ZNSt3__15dequeIiNS_9allocatorIiEEE21_ConstructTransactionD1B8ue170006Ev, symObjAddr: 0xBE40, symBinAddr: 0x10000EE88, symSize: 0x2C }
  - { offsetInCU: 0x150D2, offset: 0x150D2, size: 0x8, addend: 0x0, symName: __ZNSt3__15dequeIiNS_9allocatorIiEEE13__deque_rangeppB8ue170006Ev, symObjAddr: 0xBE6C, symBinAddr: 0x10000EEB4, symSize: 0x64 }
  - { offsetInCU: 0x150F8, offset: 0x150F8, size: 0x8, addend: 0x0, symName: __ZNSt3__15dequeIiNS_9allocatorIiEEE18__recommend_blocksB8ue170006Em, symObjAddr: 0xBED0, symBinAddr: 0x10000EF18, symSize: 0x40 }
  - { offsetInCU: 0x1511C, offset: 0x1511C, size: 0x8, addend: 0x0, symName: __ZNSt3__114__split_bufferIPiRNS_9allocatorIS1_EEE4backB8ue170006Ev, symObjAddr: 0xBF10, symBinAddr: 0x10000EF58, symSize: 0x1C }
  - { offsetInCU: 0x15142, offset: 0x15142, size: 0x8, addend: 0x0, symName: __ZNSt3__114__split_bufferIPiRNS_9allocatorIS1_EEE5beginB8ue170006Ev, symObjAddr: 0xBF2C, symBinAddr: 0x10000EF74, symSize: 0x18 }
  - { offsetInCU: 0x15168, offset: 0x15168, size: 0x8, addend: 0x0, symName: __ZNSt3__114__split_bufferIPiRNS_9allocatorIS1_EEE3endB8ue170006Ev, symObjAddr: 0xBF44, symBinAddr: 0x10000EF8C, symSize: 0x18 }
  - { offsetInCU: 0x1518E, offset: 0x1518E, size: 0x8, addend: 0x0, symName: __ZNSt3__114__split_bufferIPiRNS_9allocatorIS1_EEE9push_backB8ue170006ERKS1_, symObjAddr: 0xBF5C, symBinAddr: 0x10000EFA4, symSize: 0x260 }
  - { offsetInCU: 0x15206, offset: 0x15206, size: 0x8, addend: 0x0, symName: __ZNSt3__15dequeIiNS_9allocatorIiEEE13__deque_rangeC2B8ue170006ENS_16__deque_iteratorIiPiRiPS6_lLl1024EEES9_, symObjAddr: 0xC1BC, symBinAddr: 0x10000F204, symSize: 0x34 }
  - { offsetInCU: 0x1524E, offset: 0x1524E, size: 0x8, addend: 0x0, symName: __ZNSt3__15dequeIiNS_9allocatorIiEEE19__deque_block_rangeC1B8ue170006EPiS5_, symObjAddr: 0xC220, symBinAddr: 0x10000F268, symSize: 0x3C }
  - { offsetInCU: 0x15296, offset: 0x15296, size: 0x8, addend: 0x0, symName: __ZNSt3__15dequeIiNS_9allocatorIiEEE19__deque_block_rangeC2B8ue170006EPiS5_, symObjAddr: 0xC25C, symBinAddr: 0x10000F2A4, symSize: 0x2C }
  - { offsetInCU: 0x152DE, offset: 0x152DE, size: 0x8, addend: 0x0, symName: __ZNSt3__15dequeIiNS_9allocatorIiEEE21_ConstructTransactionC2B8ue170006EPS3_RNS3_19__deque_block_rangeE, symObjAddr: 0xC288, symBinAddr: 0x10000F2D0, symSize: 0x48 }
  - { offsetInCU: 0x15326, offset: 0x15326, size: 0x8, addend: 0x0, symName: __ZNSt3__15dequeIiNS_9allocatorIiEEE21_ConstructTransactionD2B8ue170006Ev, symObjAddr: 0xC2D0, symBinAddr: 0x10000F318, symSize: 0x5C }
  - { offsetInCU: 0x15350, offset: 0x15350, size: 0x8, addend: 0x0, symName: __ZNKSt3__15dequeIiNS_9allocatorIiEEE6__sizeB8ue170006Ev, symObjAddr: 0xC354, symBinAddr: 0x10000F39C, symSize: 0x28 }
  - { offsetInCU: 0x15376, offset: 0x15376, size: 0x8, addend: 0x0, symName: __ZNKSt3__117__compressed_pairImNS_9allocatorIiEEE5firstB8ue170006Ev, symObjAddr: 0xC37C, symBinAddr: 0x10000F3C4, symSize: 0x24 }
  - { offsetInCU: 0x1539C, offset: 0x1539C, size: 0x8, addend: 0x0, symName: __ZNKSt3__122__compressed_pair_elemImLi0ELb0EE5__getB8ue170006Ev, symObjAddr: 0xC3A0, symBinAddr: 0x10000F3E8, symSize: 0x14 }
...
